081110 114005 10102 INFO dfs.DataNode$PacketResponder: PacketResponder 1 for block blk_4967492069970766092 terminating
081110 114019 10028 INFO dfs.DataNode$PacketResponder: PacketResponder 2 for block blk_-1485317050914225917 terminating
081110 114020 10232 INFO dfs.DataNode$DataXceiver: Receiving block blk_1727371778357941761 src: /10.251.126.255:42844 dest: /10.251.126.255:50010
081110 114119 34 INFO dfs.FSNamesystem: BLOCK* NameSystem.addStoredBlock: blockMap updated: 10.251.26.177:50010 is added to blk_-2402036602753320612 size 67108864
081110 114144 10436 INFO dfs.DataNode$PacketResponder: Received block blk_-1849105860762445186 of size 67108864 from /10.251.91.229
081110 114231 10363 INFO dfs.DataNode$DataXceiver: Receiving block blk_-7820996703068538967 src: /10.251.35.1:59569 dest: /10.251.35.1:50010
081110 114309 29 INFO dfs.FSNamesystem: BLOCK* NameSystem.allocateBlock: /user/root/randtxt2/_temporary/_task_200811101024_0002_m_000299_0/part-00299. blk_4984150784048864430
081110 114315 10226 INFO dfs.DataNode$PacketResponder: Received block blk_1646909113279517647 of size 67108864 from /10.251.214.130
081110 114319 33 INFO dfs.FSNamesystem: BLOCK* NameSystem.addStoredBlock: blockMap updated: 10.251.25.237:50010 is added to blk_-8145226289286457574 size 67108864
081110 114347 35 INFO dfs.FSNamesystem: BLOCK* NameSystem.addStoredBlock: blockMap updated: 10.251.214.18:50010 is added to blk_5809900021002850724 size 67108864
081110 114354 10356 INFO dfs.DataNode$DataXceiver: Receiving block blk_2735034460607366827 src: /10.251.91.15:57370 dest: /10.251.91.15:50010
081110 114357 10454 INFO dfs.DataNode$DataXceiver: Receiving block blk_-7486746679002157277 src: /10.251.42.207:57669 dest: /10.251.42.207:50010
081110 114449 10421 INFO dfs.DataNode$DataXceiver: Receiving block blk_-8876879715755468215 src: /10.251.111.80:43834 dest: /10.251.111.80:50010
081110 114454 30 INFO dfs.FSNamesystem: BLOCK* NameSystem.allocateBlock: /user/root/randtxt2/_temporary/_task_200811101024_0002_m_000054_0/part-00054. blk_-4139299269696044017
081110 114504 10561 INFO dfs.DataNode$DataXceiver: Receiving block blk_591323161994959677 src: /10.251.195.33:50123 dest: /10.251.195.33:50010
081110 114637 10468 INFO dfs.DataNode$PacketResponder: PacketResponder 1 for block blk_-5828360070550196756 terminating
081110 114717 10303 INFO dfs.DataNode$PacketResponder: PacketResponder 2 for block blk_-7683667795522321323 terminating
081110 114724 10433 INFO dfs.DataNode$DataXceiver: Receiving block blk_7733243482102436613 src: /10.250.6.223:34069 dest: /10.250.6.223:50010
081110 114738 10395 INFO dfs.DataNode$DataXceiver: Receiving block blk_2980964138205299397 src: /10.251.110.196:53450 dest: /10.251.110.196:50010
081110 115017 31 INFO dfs.FSNamesystem: BLOCK* NameSystem.addStoredBlock: blockMap updated: 10.251.127.191:50010 is added to blk_1589878256898761558 size 67108864
081110 115202 10582 INFO dfs.DataNode$DataXceiver: Receiving block blk_-2746863406163228797 src: /10.251.39.160:35642 dest: /10.251.39.160:50010
081110 115204 10569 INFO dfs.DataNode$DataXceiver: Receiving block blk_3067558337579347170 src: /10.250.6.191:34137 dest: /10.250.6.191:50010
081110 115226 10579 INFO dfs.DataNode$DataXceiver: Receiving block blk_8992894896370738220 src: /10.251.43.210:54766 dest: /10.251.43.210:50010
081110 115408 10446 INFO dfs.DataNode$DataXceiver: Receiving block blk_-7230947007726948080 src: /10.251.29.239:53564 dest: /10.251.29.239:50010
081110 115526 10492 INFO dfs.DataNode$DataXceiver: Receiving block blk_1869228153483717375 src: /10.251.203.4:56599 dest: /10.251.203.4:50010
081110 115614 28 INFO dfs.FSNamesystem: BLOCK* NameSystem.addStoredBlock: blockMap updated: 10.251.65.203:50010 is added to blk_-3949633496933134307 size 67108864
081110 115700 10671 INFO dfs.DataNode$PacketResponder: PacketResponder 1 for block blk_-8745453424063341007 terminating
081110 115734 10668 INFO dfs.DataNode$PacketResponder: Received block blk_-2117066166574895060 of size 67108864 from /10.251.73.188
081110 115737 27 INFO dfs.FSNamesystem: BLOCK* NameSystem.addStoredBlock: blockMap updated: 10.251.195.33:50010 is added to blk_512039711533506696 size 67108864
081110 115742 10672 INFO dfs.DataNode$PacketResponder: PacketResponder 1 for block blk_6017354285686373326 terminating
081110 115804 32 INFO dfs.FSNamesystem: BLOCK* NameSystem.addStoredBlock: blockMap updated: 10.251.126.83:50010 is added to blk_5176855630425795751 size 67108864
081110 115934 10597 INFO dfs.DataNode$PacketResponder: Received block blk_-4433556521525567493 of size 28492032 from /10.250.6.4
081110 120103 10778 INFO dfs.DataNode$PacketResponder: PacketResponder 2 for block blk_-5321676321043683563 terminating
081110 120139 10638 INFO dfs.DataNode$PacketResponder: PacketResponder 1 for block blk_-357695136519539363 terminating
081110 120233 27 INFO dfs.FSNamesystem: BLOCK* NameSystem.addStoredBlock: blockMap updated: 10.251.111.37:50010 is added to blk_-7603740654202748654 size 67108864
081110 120246 10414 INFO dfs.DataNode$PacketResponder: PacketResponder 1 for block blk_1279439901767890758 terminating
081110 120247 10427 INFO dfs.DataNode$DataXceiver: Receiving block blk_8942969309743886844 src: /10.251.110.68:58266 dest: /10.251.110.68:50010
081110 120247 10525 INFO dfs.DataNode$PacketResponder: Received block blk_469871968689793326 of size 67108864 from /10.251.30.179
081110 120410 35 INFO dfs.FSNamesystem: BLOCK* NameSystem.allocateBlock: /user/root/randtxt2/_temporary/_task_200811101024_0002_m_001080_0/part-01080. blk_2847401988110989655
081110 120429 29 INFO dfs.FSNamesystem: BLOCK* NameSystem.addStoredBlock: blockMap updated: 10.251.197.226:50010 is added to blk_4307207852226914003 size 67108864
081110 120516 31 INFO dfs.FSNamesystem: BLOCK* NameSystem.addStoredBlock: blockMap updated: 10.251.73.220:50010 is added to blk_3506875694435075421 size 67108864
081110 120524 26 INFO dfs.FSNamesystem: BLOCK* NameSystem.addStoredBlock: blockMap updated: 10.251.202.134:50010 is added to blk_-4945182943709543868 size 67108864
081110 120621 32 INFO dfs.FSNamesystem: BLOCK* NameSystem.allocateBlock: /user/root/randtxt2/_temporary/_task_200811101024_0002_m_000809_0/part-00809. blk_7550266985912909372
081110 120718 34 INFO dfs.FSNamesystem: BLOCK* NameSystem.addStoredBlock: blockMap updated: 10.251.215.192:50010 is added to blk_-4619809198345103330 size 67108864
081110 120807 10546 INFO dfs.DataNode$PacketResponder: Received block blk_4614530673206341566 of size 67108864 from /10.251.91.229
081110 120857 29 INFO dfs.FSNamesystem: BLOCK* NameSystem.addStoredBlock: blockMap updated: 10.251.201.204:50010 is added to blk_6125469222540396851 size 67108864
081110 120931 10872 INFO dfs.DataNode$DataXceiver: Receiving block blk_6868050965297613251 src: /10.251.201.204:47734 dest: /10.251.201.204:50010
081110 121045 10833 INFO dfs.DataNode$DataXceiver: Receiving block blk_-7266711648018793699 src: /10.251.31.242:47086 dest: /10.251.31.242:50010
081110 121136 10865 INFO dfs.DataNode$DataXceiver: Receiving block blk_9146254623576405494 src: /10.250.7.146:60294 dest: /10.250.7.146:50010
081110 121153 10880 INFO dfs.DataNode$PacketResponder: Received block blk_-6966935672736779591 of size 67108864 from /10.251.90.64
081110 121156 11034 INFO dfs.DataNode$DataXceiver: Receiving block blk_-7411687001739959508 src: /10.251.122.65:46080 dest: /10.251.122.65:50010
081110 121202 11005 INFO dfs.DataNode$PacketResponder: PacketResponder 2 for block blk_6514181997629420906 terminating
081110 121248 10737 INFO dfs.DataNode$DataXceiver: Receiving block blk_-4434479572312007079 src: /10.251.30.101:60539 dest: /10.251.30.101:50010
081110 121402 10935 INFO dfs.DataNode$PacketResponder: PacketResponder 1 for block blk_-3339018122410311668 terminating
081110 121647 30 INFO dfs.FSNamesystem: BLOCK* NameSystem.addStoredBlock: blockMap updated: 10.251.91.32:50010 is added to blk_5272761429354463572 size 67108864
081110 121711 11025 INFO dfs.DataNode$PacketResponder: PacketResponder 2 for block blk_-1680563440028826904 terminating
081110 121758 10889 INFO dfs.DataNode$PacketResponder: Received block blk_-5671206752084326639 of size 67108864 from /10.251.214.67
081110 121758 13 INFO dfs.DataBlockScanner: Verification succeeded for blk_1649162819905816843
081110 121943 29 INFO dfs.FSNamesystem: BLOCK* NameSystem.allocateBlock: /user/root/randtxt2/_temporary/_task_200811101024_0002_m_001335_0/part-01335. blk_-2541428592126088938
081110 121951 30 INFO dfs.FSNamesystem: BLOCK* NameSystem.addStoredBlock: blockMap updated: 10.251.66.3:50010 is added to blk_6547729596040509998 size 67108864
081110 122121 10760 INFO dfs.DataNode$DataXceiver: Receiving block blk_-3673133694834392576 src: /10.251.109.209:49088 dest: /10.251.109.209:50010
081110 122207 11264 INFO dfs.DataNode$PacketResponder: Received block blk_48742413802609430 of size 67108864 from /10.251.106.10
081110 122210 11081 INFO dfs.DataNode$DataXceiver: Receiving block blk_6085274723649229095 src: /10.251.127.191:51113 dest: /10.251.127.191:50010
081110 122309 11240 INFO dfs.DataNode$PacketResponder: Received block blk_-227411387418683230 of size 67108864 from /10.251.194.213
081110 122314 29 INFO dfs.FSNamesystem: BLOCK* NameSystem.addStoredBlock: blockMap updated: 10.251.31.160:50010 is added to blk_3079488924320077240 size 67108864
081110 122407 11042 INFO dfs.DataNode$PacketResponder: Received block blk_692184983396207285 of size 67108864 from /10.250.6.214
081110 122444 30 INFO dfs.FSNamesystem: BLOCK* NameSystem.addStoredBlock: blockMap updated: 10.251.66.102:50010 is added to blk_-5009274684359267777 size 67108864
081110 122607 11193 INFO dfs.DataNode$PacketResponder: Received block blk_2599050023684318911 of size 67108864 from /10.251.106.10
081110 122609 26 INFO dfs.FSNamesystem: BLOCK* NameSystem.addStoredBlock: blockMap updated: 10.251.123.195:50010 is added to blk_3911263675181899748 size 67108864
081110 122630 10903 INFO dfs.DataNode$DataXceiver: Receiving block blk_5641239200978828454 src: /10.251.42.9:51808 dest: /10.251.42.9:50010
081110 122648 11281 INFO dfs.DataNode$DataXceiver: Receiving block blk_-8852638972311349374 src: /10.251.107.227:46913 dest: /10.251.107.227:50010
081110 122702 11168 INFO dfs.DataNode$DataXceiver: Receiving block blk_-719498947487451844 src: /10.251.125.193:52079 dest: /10.251.125.193:50010
081110 122717 27 INFO dfs.FSNamesystem: BLOCK* NameSystem.addStoredBlock: blockMap updated: 10.251.66.63:50010 is added to blk_-3170270010972115378 size 67108864
081110 122719 11316 INFO dfs.DataNode$DataXceiver: Receiving block blk_6988110707613820142 src: /10.251.123.132:47658 dest: /10.251.123.132:50010
081110 123008 11210 INFO dfs.DataNode$PacketResponder: PacketResponder 1 for block blk_-1490623381339215624 terminating
081110 123012 10997 INFO dfs.DataNode$DataXceiver: Receiving block blk_-2192382893903170466 src: /10.251.201.204:36915 dest: /10.251.201.204:50010
081110 123040 26 INFO dfs.FSNamesystem: BLOCK* NameSystem.addStoredBlock: blockMap updated: 10.251.203.149:50010 is added to blk_-6247364168500873179 size 67108864
081110 123114 33 INFO dfs.FSNamesystem: BLOCK* NameSystem.addStoredBlock: blockMap updated: 10.251.125.237:50010 is added to blk_4234385041723406944 size 67108864
081110 123132 11170 INFO dfs.DataNode$PacketResponder: Received block blk_8968608251219902913 of size 67108864 from /10.251.195.52
081110 123237 30 INFO dfs.FSNamesystem: BLOCK* NameSystem.addStoredBlock: blockMap updated: 10.250.10.100:50010 is added to blk_-8502460962248995911 size 28489733
081110 123252 11126 INFO dfs.DataNode$PacketResponder: Received block blk_-1201318815778694289 of size 67108864 from /10.251.194.147
081110 123252 11243 INFO dfs.DataNode$PacketResponder: Received block blk_-9089815063425241739 of size 67108864 from /10.251.126.255
081110 123309 29 INFO dfs.FSNamesystem: BLOCK* NameSystem.addStoredBlock: blockMap updated: 10.251.214.32:50010 is added to blk_1389634598105954660 size 67108864
081110 123401 10856 INFO dfs.DataNode$PacketResponder: Received block blk_557803157214911261 of size 67108864 from /10.251.198.196