081111 043132 32 INFO dfs.FSNamesystem: BLOCK* NameSystem.allocateBlock: /user/root/randtxt4/_temporary/_task_200811101024_0010_m_001716_0/part-01716. blk_-2051219911597308805
081111 043140 19599 INFO dfs.DataNode$PacketResponder: PacketResponder 1 for block blk_-2680500627064966252 terminating
081111 043222 20077 INFO dfs.DataNode$DataXceiver: Receiving block blk_-9092685890953655332 src: /10.250.15.240:43274 dest: /10.250.15.240:50010
081111 043341 19898 INFO dfs.DataNode$DataXceiver: Receiving block blk_-4473020641607592551 src: /10.251.42.191:48114 dest: /10.251.42.191:50010
081111 043358 27 INFO dfs.FSNamesystem: BLOCK* NameSystem.addStoredBlock: blockMap updated: 10.251.111.37:50010 is added to blk_-524128780228307052 size 67108864
081111 043515 20251 INFO dfs.DataNode$PacketResponder: Received block blk_4443043493758564822 of size 67108864 from /10.251.106.37
081111 043630 20253 INFO dfs.DataNode$PacketResponder: Received block blk_5118390778403008591 of size 67108864 from /10.251.30.101
081111 043746 20226 INFO dfs.DataNode$DataXceiver: Receiving block blk_2737505352081488746 src: /10.251.194.245:52516 dest: /10.251.194.245:50010
081111 043825 20130 INFO dfs.DataNode$PacketResponder: Received block blk_-9013487557842539661 of size 28485342 from /10.251.215.192
081111 043903 20003 INFO dfs.DataNode$PacketResponder: PacketResponder 1 for block blk_-8638442557570632582 terminating
081111 044041 35 INFO dfs.FSNamesystem: BLOCK* NameSystem.addStoredBlock: blockMap updated: 10.251.202.209:50010 is added to blk_111759050707136656 size 67108864
081111 044304 35 INFO dfs.FSNamesystem: BLOCK* NameSystem.delete: blk_2259206517962925438 is added to invalidSet of 10.251.215.16:50010
081111 044304 35 INFO dfs.FSNamesystem: BLOCK* NameSystem.delete: blk_-3854777877236596649 is added to invalidSet of 10.251.39.160:50010
081111 044305 35 INFO dfs.FSNamesystem: BLOCK* NameSystem.delete: blk_-4265150363959543078 is added to invalidSet of 10.251.39.160:50010
081111 044309 35 INFO dfs.FSNamesystem: BLOCK* NameSystem.delete: blk_3729730843466061623 is added to invalidSet of 10.251.27.63:50010
081111 044310 35 INFO dfs.FSNamesystem: BLOCK* NameSystem.delete: blk_3876184938151091897 is added to invalidSet of 10.251.30.85:50010
081111 044311 35 INFO dfs.FSNamesystem: BLOCK* NameSystem.delete: blk_-1227720343537039835 is added to invalidSet of 10.251.202.134:50010
081111 044314 35 INFO dfs.FSNamesystem: BLOCK* NameSystem.delete: blk_-6921441628286995043 is added to invalidSet of 10.251.126.83:50010
081111 044315 35 INFO dfs.FSNamesystem: BLOCK* NameSystem.delete: blk_3539852484771802299 is added to invalidSet of 10.250.19.227:50010
081111 044316 35 INFO dfs.FSNamesystem: BLOCK* NameSystem.delete: blk_2341651676737321162 is added to invalidSet of 10.251.203.129:50010
081111 044318 35 INFO dfs.FSNamesystem: BLOCK* NameSystem.delete: blk_-765820154946060546 is added to invalidSet of 10.251.65.203:50010
081111 044319 35 INFO dfs.FSNamesystem: BLOCK* NameSystem.delete: blk_-2492400942012223395 is added to invalidSet of 10.251.202.209:50010
081111 044320 35 INFO dfs.FSNamesystem: BLOCK* NameSystem.delete: blk_-8351015090014570293 is added to invalidSet of 10.251.199.86:50010
081111 044328 29 INFO dfs.FSNamesystem: BLOCK* NameSystem.delete: blk_-328970571549408286 is added to invalidSet of 10.251.214.32:50010
081111 044328 29 INFO dfs.FSNamesystem: BLOCK* NameSystem.delete: blk_-8130925109202184099 is added to invalidSet of 10.251.125.193:50010
081111 044331 29 INFO dfs.FSNamesystem: BLOCK* NameSystem.delete: blk_-3242342105286997235 is added to invalidSet of 10.251.71.97:50010
081111 044332 29 INFO dfs.FSNamesystem: BLOCK* NameSystem.delete: blk_2468407162668753567 is added to invalidSet of 10.251.106.37:50010
081111 044335 29 INFO dfs.FSNamesystem: BLOCK* NameSystem.delete: blk_7841365850685201915 is added to invalidSet of 10.251.110.68:50010
081111 044337 13 INFO dfs.DataBlockScanner: Verification succeeded for blk_-6160667975382232149
081111 044338 29 INFO dfs.FSNamesystem: BLOCK* NameSystem.delete: blk_2426255659473300323 is added to invalidSet of 10.251.106.37:50010
081111 044338 29 INFO dfs.FSNamesystem: BLOCK* NameSystem.delete: blk_5203504995927133832 is added to invalidSet of 10.250.13.240:50010
081111 044340 29 INFO dfs.FSNamesystem: BLOCK* NameSystem.delete: blk_815809455641029563 is added to invalidSet of 10.251.111.37:50010
081111 044343 29 INFO dfs.FSNamesystem: BLOCK* NameSystem.delete: blk_6413710007211667486 is added to invalidSet of 10.251.30.179:50010
081111 044345 29 INFO dfs.FSNamesystem: BLOCK* NameSystem.delete: blk_-2907776069874917892 is added to invalidSet of 10.251.215.16:50010
081111 044347 29 INFO dfs.FSNamesystem: BLOCK* NameSystem.delete: blk_-5802915611610989626 is added to invalidSet of 10.251.110.196:50010
081111 044349 29 INFO dfs.FSNamesystem: BLOCK* NameSystem.delete: blk_-7668075074035173978 is added to invalidSet of 10.251.31.5:50010
081111 044351 29 INFO dfs.FSNamesystem: BLOCK* NameSystem.delete: blk_-1573544581830458089 is added to invalidSet of 10.251.122.65:50010
081111 044353 19 INFO dfs.FSDataset: Deleting block blk_-1180596628202464893 file /mnt/hadoop/dfs/data/current/subdir52/blk_-1180596628202464893
081111 044427 20289 INFO dfs.DataNode$DataXceiver: Receiving block blk_1407935810673971357 src: /10.251.123.99:54184 dest: /10.251.123.99:50010
081111 044522 18 INFO dfs.FSDataset: Deleting block blk_-8167717961644709843 file /mnt/hadoop/dfs/data/current/blk_-8167717961644709843
081111 044543 19 INFO dfs.FSDataset: Deleting block blk_-7464161062429228045 file /mnt/hadoop/dfs/data/current/subdir19/blk_-7464161062429228045
081111 044546 19 INFO dfs.FSDataset: Deleting block blk_-5934436507161953485 file /mnt/hadoop/dfs/data/current/subdir33/blk_-5934436507161953485
081111 044546 20347 INFO dfs.DataNode$PacketResponder: Received block blk_-3922743468150895472 of size 67108864 from /10.251.39.179
081111 044550 19 INFO dfs.FSDataset: Deleting block blk_-7832937837605180330 file /mnt/hadoop/dfs/data/current/subdir49/blk_-7832937837605180330
081111 044554 19 INFO dfs.FSDataset: Deleting block blk_-8547071368131084410 file /mnt/hadoop/dfs/data/current/subdir38/blk_-8547071368131084410
081111 044556 19 INFO dfs.FSDataset: Deleting block blk_-5429042599096020592 file /mnt/hadoop/dfs/data/current/subdir34/blk_-5429042599096020592
081111 044612 19 INFO dfs.FSDataset: Deleting block blk_-6350492516478706425 file /mnt/hadoop/dfs/data/current/subdir36/blk_-6350492516478706425
081111 044624 19 INFO dfs.FSDataset: Deleting block blk_-6053005391233809507 file /mnt/hadoop/dfs/data/current/subdir27/blk_-6053005391233809507
081111 044624 20167 INFO dfs.DataNode$PacketResponder: Received block blk_-1522998827901549925 of size 67108864 from /10.251.127.47
081111 044630 19 INFO dfs.FSDataset: Deleting block blk_-4311652947826112510 file /mnt/hadoop/dfs/data/current/subdir57/blk_-4311652947826112510
081111 044635 19 INFO dfs.FSDataset: Deleting block blk_-1754204887541031211 file /mnt/hadoop/dfs/data/current/subdir58/blk_-1754204887541031211
081111 044639 19 INFO dfs.FSDataset: Deleting block blk_-4165176068096983220 file /mnt/hadoop/dfs/data/current/subdir34/blk_-4165176068096983220
081111 044648 19 INFO dfs.FSDataset: Deleting block blk_4863571548336254624 file /mnt/hadoop/dfs/data/current/subdir5/blk_4863571548336254624
081111 044650 19 INFO dfs.FSDataset: Deleting block blk_-4844505495441326897 file /mnt/hadoop/dfs/data/current/subdir36/blk_-4844505495441326897
081111 044652 19 INFO dfs.FSDataset: Deleting block blk_-7513928662244669476 file /mnt/hadoop/dfs/data/current/subdir11/blk_-7513928662244669476
081111 044654 19 INFO dfs.FSDataset: Deleting block blk_-5014786445735476734 file /mnt/hadoop/dfs/data/current/subdir9/blk_-5014786445735476734
081111 044700 19 INFO dfs.FSDataset: Deleting block blk_-1046472716157313227 file /mnt/hadoop/dfs/data/current/subdir62/blk_-1046472716157313227
081111 044700 19 INFO dfs.FSDataset: Deleting block blk_-1281276222788579863 file /mnt/hadoop/dfs/data/current/subdir30/blk_-1281276222788579863
081111 044704 19 INFO dfs.FSDataset: Deleting block blk_449049393237281194 file /mnt/hadoop/dfs/data/current/subdir18/blk_449049393237281194
081111 044716 19 INFO dfs.FSDataset: Deleting block blk_352185875883785141 file /mnt/hadoop/dfs/data/current/subdir44/blk_352185875883785141
081111 044720 19 INFO dfs.FSDataset: Deleting block blk_-2890295200276774269 file /mnt/hadoop/dfs/data/current/subdir29/blk_-2890295200276774269
081111 044728 18 INFO dfs.FSDataset: Deleting block blk_1379455396847512711 file /mnt/hadoop/dfs/data/current/blk_1379455396847512711
081111 044740 19 INFO dfs.FSDataset: Deleting block blk_2180875151184358991 file /mnt/hadoop/dfs/data/current/subdir31/blk_2180875151184358991
081111 044749 19766 INFO dfs.DataNode$DataXceiver: Receiving block blk_-8879979113392880065 src: /10.251.202.181:33345 dest: /10.251.202.181:50010
081111 044752 19 INFO dfs.FSDataset: Deleting block blk_1553688227908800900 file /mnt/hadoop/dfs/data/current/subdir15/blk_1553688227908800900
081111 044757 19 INFO dfs.FSDataset: Deleting block blk_6138894560185644209 file /mnt/hadoop/dfs/data/current/subdir42/blk_6138894560185644209
081111 044759 19 INFO dfs.FSDataset: Deleting block blk_-1368324087589035770 file /mnt/hadoop/dfs/data/current/blk_-1368324087589035770
081111 044759 19 INFO dfs.FSDataset: Deleting block blk_3274968259628929519 file /mnt/hadoop/dfs/data/current/subdir19/blk_3274968259628929519
081111 044806 19 INFO dfs.FSDataset: Deleting block blk_5736622945587812309 file /mnt/hadoop/dfs/data/current/subdir19/blk_5736622945587812309
081111 044812 19 INFO dfs.FSDataset: Deleting block blk_9142114171015520823 file /mnt/hadoop/dfs/data/current/subdir48/blk_9142114171015520823
081111 044822 19 INFO dfs.FSDataset: Deleting block blk_8556592730481313831 file /mnt/hadoop/dfs/data/current/blk_8556592730481313831
081111 044834 19 INFO dfs.FSDataset: Deleting block blk_6147898566868510104 file /mnt/hadoop/dfs/data/current/subdir36/blk_6147898566868510104
081111 044847 20391 INFO dfs.DataNode$DataXceiver: Receiving block blk_-4334868513923498900 src: /10.251.91.15:35440 dest: /10.251.91.15:50010
081111 044855 19 INFO dfs.FSDataset: Deleting block blk_9081834782322008396 file /mnt/hadoop/dfs/data/current/subdir40/blk_9081834782322008396
081111 044913 18 INFO dfs.FSDataset: Deleting block blk_8962411947457130719 file /mnt/hadoop/dfs/data/current/subdir16/blk_8962411947457130719
081111 045125 30 INFO dfs.FSNamesystem: BLOCK* NameSystem.addStoredBlock: blockMap updated: 10.251.75.143:50010 is added to blk_2312679955495839894 size 67108864
081111 045125 30 INFO dfs.FSNamesystem: BLOCK* NameSystem.addStoredBlock: blockMap updated: 10.251.75.143:50010 is added to blk_7434237665308221519 size 67108864
081111 045222 20321 INFO dfs.DataNode$DataXceiver: Receiving block blk_2380775154966815858 src: /10.251.107.50:33333 dest: /10.251.107.50:50010
081111 045224 20229 INFO dfs.DataNode$PacketResponder: Received block blk_3777389444004341563 of size 67108864 from /10.251.214.175
081111 045252 20089 INFO dfs.DataNode$PacketResponder: PacketResponder 2 for block blk_-4578850505370039622 terminating
081111 045430 28 INFO dfs.FSNamesystem: BLOCK* NameSystem.addStoredBlock: blockMap updated: 10.250.6.214:50010 is added to blk_4893049344332234616 size 67108864
081111 045614 20587 INFO dfs.DataNode$DataXceiver: Receiving block blk_9131004320470011870 src: /10.251.123.132:52815 dest: /10.251.123.132:50010
081111 045623 31 INFO dfs.FSNamesystem: BLOCK* NameSystem.allocateBlock: /user/root/rand5/_temporary/_task_200811101024_0011_m_000040_0/part-00040. blk_1253515519191706153
081111 045628 26 INFO dfs.FSNamesystem: BLOCK* NameSystem.addStoredBlock: blockMap updated: 10.251.214.130:50010 is added to blk_-9056748866943837167 size 67108864