081111 023914 17773 INFO dfs.DataNode$DataXceiver: 10.251.122.65:50010 Served block blk_2866275036574950116 to /10.250.11.53
081111 024105 17911 INFO dfs.DataNode$PacketResponder: Received block blk_-6811519872198278365 of size 67108864 from /10.250.6.4
081111 024133 31 INFO dfs.FSNamesystem: BLOCK* NameSystem.addStoredBlock: blockMap updated: 10.251.199.19:50010 is added to blk_6748710057489679257 size 67108864
081111 024247 29 INFO dfs.FSNamesystem: BLOCK* NameSystem.addStoredBlock: blockMap updated: 10.251.39.209:50010 is added to blk_1833093108290599780 size 67108864
081111 024304 27 INFO dfs.FSNamesystem: BLOCK* NameSystem.addStoredBlock: blockMap updated: 10.250.7.146:50010 is added to blk_9163807899833139121 size 67108864
081111 024309 17772 INFO dfs.DataNode$DataXceiver: Receiving block blk_3941798034503185737 src: /10.250.11.85:42358 dest: /10.250.11.85:50010
081111 024325 17904 INFO dfs.DataNode$PacketResponder: Received block blk_6894918622505820383 of size 67108864 from /10.250.14.143
081111 024443 17867 INFO dfs.DataNode$DataXceiver: Receiving block blk_6491424745418112176 src: /10.251.214.130:57008 dest: /10.251.214.130:50010
081111 024443 29 INFO dfs.FSNamesystem: BLOCK* NameSystem.allocateBlock: /user/root/rand4/_temporary/_task_200811101024_0009_m_000115_0/part-00115. blk_-17685631368401548
081111 024724 31 INFO dfs.FSNamesystem: BLOCK* NameSystem.allocateBlock: /user/root/rand4/_temporary/_task_200811101024_0009_m_000176_0/part-00176. blk_8924207394547472950
081111 024742 17976 INFO dfs.DataNode$DataXceiver: Receiving block blk_-4526931594457272384 src: /10.251.43.147:40348 dest: /10.251.43.147:50010
081111 024831 35 INFO dfs.FSNamesystem: BLOCK* NameSystem.addStoredBlock: blockMap updated: 10.251.31.242:50010 is added to blk_5390763359901143305 size 67108864
081111 024901 18086 INFO dfs.DataNode$DataXceiver: Receiving block blk_-11867600358649678 src: /10.251.75.79:46421 dest: /10.251.75.79:50010
081111 024901 30 INFO dfs.FSNamesystem: BLOCK* NameSystem.addStoredBlock: blockMap updated: 10.250.11.194:50010 is added to blk_2430417102497887445 size 67108864
081111 024901 35 INFO dfs.FSNamesystem: BLOCK* NameSystem.addStoredBlock: blockMap updated: 10.251.214.18:50010 is added to blk_-747046374856916711 size 67108864
081111 025101 18187 INFO dfs.DataNode$PacketResponder: Received block blk_5062112794659861146 of size 67108864 from /10.251.91.84
081111 025208 18218 INFO dfs.DataNode$DataXceiver: Receiving block blk_-116589515245909549 src: /10.251.203.179:33198 dest: /10.251.203.179:50010
081111 025335 17997 INFO dfs.DataNode$PacketResponder: PacketResponder 1 for block blk_4628975089896927394 terminating
081111 025336 18090 INFO dfs.DataNode$DataXceiver: Receiving block blk_-764747190320632607 src: /10.251.127.191:49914 dest: /10.251.127.191:50010
081111 025346 18124 INFO dfs.DataNode$PacketResponder: Received block blk_-8015797075596093783 of size 67108864 from /10.250.11.194
081111 025424 26 INFO dfs.FSNamesystem: BLOCK* NameSystem.addStoredBlock: blockMap updated: 10.251.110.160:50010 is added to blk_-1675768179383804109 size 67108864
081111 025607 18122 INFO dfs.DataNode$PacketResponder: PacketResponder 2 for block blk_1155029843511109085 terminating
081111 025619 31 INFO dfs.FSNamesystem: BLOCK* NameSystem.addStoredBlock: blockMap updated: 10.251.67.113:50010 is added to blk_9060964400089016309 size 67108864
081111 025634 28 INFO dfs.FSNamesystem: BLOCK* NameSystem.addStoredBlock: blockMap updated: 10.251.214.67:50010 is added to blk_-1417908110808566576 size 67108864
081111 025653 18457 INFO dfs.DataNode$PacketResponder: PacketResponder 0 for block blk_-7483426835701512490 terminating
081111 025732 18087 INFO dfs.DataNode$DataXceiver: Receiving block blk_-3752135158991310104 src: /10.251.70.5:44375 dest: /10.251.70.5:50010
081111 025811 18303 INFO dfs.DataNode$DataXceiver: Receiving block blk_-8649503431827393598 src: /10.251.199.19:48778 dest: /10.251.199.19:50010
081111 025903 18116 INFO dfs.DataNode$PacketResponder: PacketResponder 2 for block blk_-6883339133893273874 terminating
081111 025915 18170 INFO dfs.DataNode$PacketResponder: PacketResponder 0 for block blk_3695169334833427187 terminating
081111 025945 18127 INFO dfs.DataNode$PacketResponder: PacketResponder 0 for block blk_6055109613223910610 terminating
081111 030015 18180 INFO dfs.DataNode$DataXceiver: Receiving block blk_-1868325377308234190 src: /10.251.42.207:50666 dest: /10.251.42.207:50010
081111 030017 28 INFO dfs.FSNamesystem: BLOCK* NameSystem.addStoredBlock: blockMap updated: 10.251.26.177:50010 is added to blk_-6338549285508312302 size 3530010
081111 030051 35 INFO dfs.FSNamesystem: BLOCK* NameSystem.addStoredBlock: blockMap updated: 10.251.30.179:50010 is added to blk_-900758580041645081 size 3543900
081111 030153 34 INFO dfs.FSNamesystem: BLOCK* NameSystem.addStoredBlock: blockMap updated: 10.251.66.3:50010 is added to blk_1756478622414930264 size 67108864
081111 030225 27 INFO dfs.FSNamesystem: BLOCK* NameSystem.addStoredBlock: blockMap updated: 10.251.127.47:50010 is added to blk_-6555060221133060529 size 67108864
081111 030233 18516 INFO dfs.DataNode$DataXceiver: Receiving block blk_9076677650086747187 src: /10.251.35.1:52094 dest: /10.251.35.1:50010
081111 030236 18183 INFO dfs.DataNode$PacketResponder: PacketResponder 2 for block blk_-4165562468976768862 terminating
081111 030240 18460 INFO dfs.DataNode$PacketResponder: PacketResponder 1 for block blk_-3295982945091621137 terminating
081111 030300 34 INFO dfs.FSNamesystem: BLOCK* NameSystem.addStoredBlock: blockMap updated: 10.250.15.240:50010 is added to blk_-7637577152926063076 size 67108864
081111 030318 18190 INFO dfs.DataNode$DataXceiver: Receiving block blk_3181161977343808286 src: /10.251.43.21:40127 dest: /10.251.43.21:50010
081111 030414 18143 INFO dfs.DataNode$DataXceiver: Receiving block blk_6807535563873595117 src: /10.250.17.177:48934 dest: /10.250.17.177:50010
081111 030416 18548 INFO dfs.DataNode$DataXceiver: Receiving block blk_7513976340045981966 src: /10.251.42.207:36468 dest: /10.251.42.207:50010
081111 030418 29 INFO dfs.FSNamesystem: BLOCK* NameSystem.allocateBlock: /user/root/rand4/_temporary/_task_200811101024_0009_m_001061_0/part-01061. blk_-749176535135404637
081111 030501 35 INFO dfs.FSNamesystem: BLOCK* NameSystem.addStoredBlock: blockMap updated: 10.251.199.245:50010 is added to blk_-7909610753867924116 size 67108864
081111 030726 18409 INFO dfs.DataNode$PacketResponder: Received block blk_-7247291679155656679 of size 67108864 from /10.250.10.176
081111 030736 18126 INFO dfs.DataNode$PacketResponder: PacketResponder 1 for block blk_-6369730481066968769 terminating
081111 030745 18290 INFO dfs.DataNode$DataXceiver: Receiving block blk_7780461223860192433 src: /10.251.127.191:58148 dest: /10.251.127.191:50010
081111 030942 32 INFO dfs.FSNamesystem: BLOCK* NameSystem.allocateBlock: /user/root/rand4/_temporary/_task_200811101024_0009_m_001281_0/part-01281. blk_2084123600915946046
081111 030946 18336 INFO dfs.DataNode$DataXceiver: Receiving block blk_92273823183917102 src: /10.250.15.67:53441 dest: /10.250.15.67:50010
081111 030950 18479 INFO dfs.DataNode$PacketResponder: Received block blk_-1141332313413855099 of size 67108864 from /10.251.89.155
081111 030958 18454 INFO dfs.DataNode$DataXceiver: Receiving block blk_3016571528120363023 src: /10.251.194.102:60235 dest: /10.251.194.102:50010
081111 031106 18346 INFO dfs.DataNode$DataXceiver: Receiving block blk_-7678242108759603056 src: /10.251.125.193:33553 dest: /10.251.125.193:50010
081111 031143 18339 INFO dfs.DataNode$DataXceiver: Receiving block blk_-7526023914950151999 src: /10.250.5.161:48457 dest: /10.250.5.161:50010
081111 031257 18567 INFO dfs.DataNode$DataXceiver: Receiving block blk_-6380328072112550668 src: /10.250.6.191:37701 dest: /10.250.6.191:50010
081111 031258 26 INFO dfs.FSNamesystem: BLOCK* NameSystem.addStoredBlock: blockMap updated: 10.250.11.100:50010 is added to blk_3222673463853349950 size 67108864
081111 031307 18432 INFO dfs.DataNode$PacketResponder: PacketResponder 2 for block blk_-3183355402229300197 terminating
081111 031334 30 INFO dfs.FSNamesystem: BLOCK* NameSystem.addStoredBlock: blockMap updated: 10.251.26.8:50010 is added to blk_-5963475042722370536 size 67108864
081111 031436 32 INFO dfs.FSNamesystem: BLOCK* NameSystem.allocateBlock: /user/root/rand4/_temporary/_task_200811101024_0009_m_001398_0/part-01398. blk_-7527506469734664572
081111 031541 18484 INFO dfs.DataNode$PacketResponder: Received block blk_9072486569292195232 of size 67108864 from /10.251.71.68
081111 031621 35 INFO dfs.FSNamesystem: BLOCK* NameSystem.addStoredBlock: blockMap updated: 10.251.199.159:50010 is added to blk_-4455205822455130625 size 67108864
081111 031650 18225 INFO dfs.DataNode$PacketResponder: Received block blk_3777399812922072863 of size 67108864 from /10.251.199.225
081111 031730 18310 INFO dfs.DataNode$PacketResponder: PacketResponder 1 for block blk_-4633546693082073737 terminating
081111 031735 18435 INFO dfs.DataNode$PacketResponder: Received block blk_6799391641508508235 of size 67108864 from /10.251.107.98
081111 031811 18619 INFO dfs.DataNode$PacketResponder: PacketResponder 0 for block blk_1002945451269828722 terminating
081111 031900 18547 INFO dfs.DataNode$PacketResponder: Received block blk_566413670355737377 of size 67108864 from /10.251.122.79
081111 031938 16978 INFO dfs.DataNode$PacketResponder: PacketResponder 1 for block blk_2819581679409796253 terminating
081111 031951 31 INFO dfs.FSNamesystem: BLOCK* NameSystem.addStoredBlock: blockMap updated: 10.251.127.243:50010 is added to blk_1512923509505250283 size 67108864
081111 032053 27 INFO dfs.FSNamesystem: BLOCK* NameSystem.allocateBlock: /user/root/rand4/_temporary/_task_200811101024_0009_m_001611_0/part-01611. blk_285336326661214154
081111 032121 33 INFO dfs.FSNamesystem: BLOCK* NameSystem.addStoredBlock: blockMap updated: 10.251.90.134:50010 is added to blk_5955377624764578810 size 67108864
081111 032357 33 INFO dfs.FSNamesystem: BLOCK* NameSystem.allocateBlock: /user/root/rand4/_temporary/_task_200811101024_0009_m_001574_0/part-01574. blk_-7458279618877678162
081111 032416 18576 INFO dfs.DataNode$PacketResponder: PacketResponder 0 for block blk_5018765878120211503 terminating
081111 032531 18607 INFO dfs.DataNode$DataXceiver: Receiving block blk_313888672758374538 src: /10.251.39.179:40031 dest: /10.251.39.179:50010
081111 032544 31 INFO dfs.FSNamesystem: BLOCK* NameSystem.addStoredBlock: blockMap updated: 10.251.109.209:50010 is added to blk_3764801892187716497 size 67108864
081111 032612 18586 INFO dfs.DataNode$PacketResponder: Received block blk_-3491385689517593364 of size 67108864 from /10.251.193.224
081111 032655 18710 INFO dfs.DataNode$PacketResponder: Received block blk_-2243784245784480521 of size 67108864 from /10.250.6.191
081111 032813 34 INFO dfs.FSNamesystem: BLOCK* NameSystem.addStoredBlock: blockMap updated: 10.250.6.223:50010 is added to blk_-4052810234606327693 size 67108864
081111 032825 18758 INFO dfs.DataNode$PacketResponder: PacketResponder 2 for block blk_-6695620358347030339 terminating
081111 032828 18581 INFO dfs.DataNode$PacketResponder: PacketResponder 0 for block blk_-5102453487463005287 terminating
081111 032900 18814 INFO dfs.DataNode$DataXceiver: Receiving block blk_7924393760966842810 src: /10.251.202.209:59148 dest: /10.251.202.209:50010
081111 032917 18710 INFO dfs.DataNode$PacketResponder: Received block blk_5915244038969911075 of size 67108864 from /10.250.11.53
081111 033110 35 INFO dfs.FSNamesystem: BLOCK* NameSystem.addStoredBlock: blockMap updated: 10.250.10.144:50010 is added to blk_3243316191092266549 size 67108864
081111 033125 18859 INFO dfs.DataNode$PacketResponder: PacketResponder 1 for block blk_8229768485681546149 terminating
081111 033211 34 INFO dfs.FSNamesystem: BLOCK* NameSystem.addStoredBlock: blockMap updated: 10.251.43.21:50010 is added to blk_3206064173813164493 size 67108864
081111 033426 18894 INFO dfs.DataNode$PacketResponder: PacketResponder 2 for block blk_-1957299792594627113 terminating