081110 212329 14784 INFO dfs.DataNode$DataXceiver: Receiving block blk_8473858691873523269 src: /10.250.11.53:60609 dest: /10.250.11.53:50010
081110 212501 15023 INFO dfs.DataNode$PacketResponder: Received block blk_6686361711974377273 of size 3554889 from /10.251.214.130
081110 212509 34 INFO dfs.FSNamesystem: BLOCK* NameSystem.addStoredBlock: blockMap updated: 10.251.123.33:50010 is added to blk_-6442394521537090621 size 67108864
081110 212510 19 INFO dfs.FSNamesystem: BLOCK* ask 10.250.18.114:50010 to delete  blk_-5140072410813878235
081110 212556 27 INFO dfs.FSNamesystem: BLOCK* NameSystem.addStoredBlock: blockMap updated: 10.251.91.84:50010 is added to blk_6039898256291822367 size 67108864
081110 212644 28 INFO dfs.FSNamesystem: BLOCK* NameSystem.allocateBlock: /user/root/rand3/_temporary/_task_200811101024_0005_m_000720_0/part-00720. blk_-7988596544606686086
081110 212831 14962 INFO dfs.DataNode$PacketResponder: PacketResponder 1 for block blk_5729560286355779655 terminating
081110 212851 28 INFO dfs.FSNamesystem: BLOCK* NameSystem.addStoredBlock: blockMap updated: 10.251.126.5:50010 is added to blk_-989798817617753264 size 67108864
081110 212942 15258 INFO dfs.DataNode$PacketResponder: Received block blk_-2242088550278361724 of size 67108864 from /10.251.123.20
081110 213021 15065 INFO dfs.DataNode$PacketResponder: Received block blk_5602895463700536678 of size 67108864 from /10.251.30.179
081110 213026 15051 INFO dfs.DataNode$DataXceiver: Receiving block blk_7580930377559819562 src: /10.251.110.68:54793 dest: /10.251.110.68:50010
081110 213221 15038 INFO dfs.DataNode$PacketResponder: PacketResponder 0 for block blk_429279891070363457 terminating
081110 213334 15049 INFO dfs.DataNode$PacketResponder: PacketResponder 0 for block blk_-9132218772786220159 terminating
081110 213351 15202 INFO dfs.DataNode$DataXceiver: Receiving block blk_-2901266958756042716 src: /10.251.110.160:35787 dest: /10.251.110.160:50010
081110 213423 14805 INFO dfs.DataNode$PacketResponder: Received block blk_6323743466920239525 of size 67108864 from /10.250.15.67
081110 213434 15194 INFO dfs.DataNode$PacketResponder: PacketResponder 2 for block blk_-7948158002985968470 terminating
081110 213448 15242 INFO dfs.DataNode$DataXceiver: Receiving block blk_-8974021306351083168 src: /10.251.91.15:40699 dest: /10.251.91.15:50010
081110 213534 15015 INFO dfs.DataNode$PacketResponder: PacketResponder 1 for block blk_-4917866339076366459 terminating
081110 213723 27 INFO dfs.FSNamesystem: BLOCK* NameSystem.addStoredBlock: blockMap updated: 10.251.214.112:50010 is added to blk_8063831442998721547 size 67108864
081110 213816 28 INFO dfs.FSNamesystem: BLOCK* NameSystem.allocateBlock: /user/root/rand3/_temporary/_task_200811101024_0005_m_001091_0/part-01091. blk_-4468645577339843974
081110 213828 15327 INFO dfs.DataNode$DataXceiver: Receiving block blk_9121519145462575118 src: /10.250.10.223:58281 dest: /10.250.10.223:50010
081110 213833 15315 INFO dfs.DataNode$PacketResponder: PacketResponder 2 for block blk_-6773301007994789531 terminating
081110 213854 15334 INFO dfs.DataNode$DataXceiver: Receiving block blk_-878226404201600469 src: /10.250.7.96:40849 dest: /10.250.7.96:50010
081110 213959 15103 INFO dfs.DataNode$PacketResponder: Received block blk_-6031720401337601269 of size 67108864 from /10.250.10.100
081110 214044 28 INFO dfs.FSNamesystem: BLOCK* NameSystem.addStoredBlock: blockMap updated: 10.251.198.33:50010 is added to blk_-5159573936338473350 size 67108864
081110 214101 15116 INFO dfs.DataNode$PacketResponder: PacketResponder 0 for block blk_-703436021914343546 terminating
081110 214117 15141 INFO dfs.DataNode$PacketResponder: Received block blk_-8641647081502666269 of size 67108864 from /10.250.10.100
081110 214226 15186 INFO dfs.DataNode$DataXceiver: Receiving block blk_3542047035353248258 src: /10.250.6.214:59051 dest: /10.250.6.214:50010
081110 214321 15339 INFO dfs.DataNode$PacketResponder: PacketResponder 2 for block blk_-736188013503336717 terminating
081110 214404 15111 INFO dfs.DataNode$PacketResponder: Received block blk_1188202922232921994 of size 67108864 from /10.250.10.100
081110 214525 35 INFO dfs.FSNamesystem: BLOCK* NameSystem.addStoredBlock: blockMap updated: 10.251.195.33:50010 is added to blk_-9049344623659872649 size 67108864
081110 214634 15356 INFO dfs.DataNode$PacketResponder: PacketResponder 0 for block blk_4575129504644372394 terminating
081110 214823 15099 INFO dfs.DataNode$DataXceiver: Receiving block blk_8574493302165689212 src: /10.251.194.245:34656 dest: /10.251.194.245:50010
081110 214907 33 INFO dfs.FSNamesystem: BLOCK* NameSystem.addStoredBlock: blockMap updated: 10.251.107.19:50010 is added to blk_5574898547439146021 size 67108864
081110 215003 15501 INFO dfs.DataNode$PacketResponder: Received block blk_2474460483915499078 of size 67108864 from /10.251.195.52
081110 215057 15637 INFO dfs.DataNode$PacketResponder: Received block blk_7851643274522055587 of size 67108864 from /10.251.214.112
081110 215111 15220 INFO dfs.DataNode$PacketResponder: Received block blk_8097409435735325492 of size 67108864 from /10.251.111.209
081110 215117 15436 INFO dfs.DataNode$PacketResponder: PacketResponder 2 for block blk_-966013175018359901 terminating
081110 215253 35 INFO dfs.FSNamesystem: BLOCK* NameSystem.allocateBlock: /user/root/rand3/_temporary/_task_200811101024_0005_m_001655_0/part-01655. blk_-6802153775367591521
081110 215310 15040 INFO dfs.DataNode$PacketResponder: Received block blk_-3300851862683571086 of size 67108864 from /10.251.203.166
081110 215310 34 INFO dfs.FSNamesystem: BLOCK* NameSystem.addStoredBlock: blockMap updated: 10.251.105.189:50010 is added to blk_-2035996502664501008 size 67108864
081110 215357 15296 INFO dfs.DataNode$DataXceiver: Receiving block blk_8222237992861447018 src: /10.251.203.4:60086 dest: /10.251.203.4:50010
081110 215546 15564 INFO dfs.DataNode$DataXceiver: Receiving block blk_6556854018013706836 src: /10.251.202.134:48721 dest: /10.251.202.134:50010
081110 215546 15644 INFO dfs.DataNode$PacketResponder: Received block blk_8302956190102508375 of size 67108864 from /10.251.109.236
081110 215654 15437 INFO dfs.DataNode$DataXceiver: Receiving block blk_-2583370070230800221 src: /10.251.31.160:58714 dest: /10.251.31.160:50010
081110 215722 15450 INFO dfs.DataNode$DataXceiver: Receiving block blk_392347292517057138 src: /10.251.31.160:58721 dest: /10.251.31.160:50010
081110 215726 15711 INFO dfs.DataNode$PacketResponder: PacketResponder 2 for block blk_1639683981444528748 terminating
081110 215726 15721 INFO dfs.DataNode$DataXceiver: Receiving block blk_5525607749827896334 src: /10.251.66.102:33326 dest: /10.251.66.102:50010
081110 215806 15819 INFO dfs.DataNode$PacketResponder: PacketResponder 0 for block blk_6809155287484296510 terminating
081110 215813 15758 INFO dfs.DataNode$PacketResponder: PacketResponder 2 for block blk_-5908283405801966540 terminating
081110 215817 27 INFO dfs.FSNamesystem: BLOCK* NameSystem.allocateBlock: /user/root/rand3/_temporary/_task_200811101024_0005_m_001824_0/part-01824. blk_-4654885003331291932
081110 220009 15450 INFO dfs.DataNode$PacketResponder: Received block blk_-8923698979247229952 of size 67108864 from /10.251.90.239
081110 220042 30 INFO dfs.FSNamesystem: BLOCK* NameSystem.addStoredBlock: blockMap updated: 10.251.91.84:50010 is added to blk_-2321016155994168744 size 67108864
081110 220148 15613 INFO dfs.DataNode$PacketResponder: Received block blk_-2151458111813215098 of size 67108864 from /10.250.9.207
081110 220238 15679 INFO dfs.DataNode$PacketResponder: PacketResponder 0 for block blk_-1733154814375651491 terminating
081110 220312 15681 INFO dfs.DataNode$DataXceiver: Receiving block blk_-3187293586306086277 src: /10.251.35.1:50933 dest: /10.251.35.1:50010
081110 220314 15849 INFO dfs.DataNode$DataXceiver: Receiving block blk_-7914996925059840931 src: /10.251.91.15:59714 dest: /10.251.91.15:50010
081110 220350 15848 INFO dfs.DataNode$PacketResponder: Received block blk_5379939266348893280 of size 67108864 from /10.251.66.63
081110 220626 34 INFO dfs.FSNamesystem: BLOCK* NameSystem.delete: blk_8981795097778421111 is added to invalidSet of 10.251.194.129:50010
081110 220630 34 INFO dfs.FSNamesystem: BLOCK* NameSystem.delete: blk_1979447750586388860 is added to invalidSet of 10.251.215.192:50010
081110 220636 32 INFO dfs.FSNamesystem: BLOCK* NameSystem.delete: blk_3332848207645320273 is added to invalidSet of 10.251.90.64:50010
081110 220636 32 INFO dfs.FSNamesystem: BLOCK* NameSystem.delete: blk_6881216037013929188 is added to invalidSet of 10.251.91.32:50010
081110 220637 32 INFO dfs.FSNamesystem: BLOCK* NameSystem.delete: blk_7541621664406141215 is added to invalidSet of 10.251.214.32:50010
081110 220645 32 INFO dfs.FSNamesystem: BLOCK* NameSystem.delete: blk_-1680175975862749862 is added to invalidSet of 10.250.14.38:50010
081110 220646 32 INFO dfs.FSNamesystem: BLOCK* NameSystem.delete: blk_5176179471361959897 is added to invalidSet of 10.250.9.207:50010
081110 220648 32 INFO dfs.FSNamesystem: BLOCK* NameSystem.delete: blk_-4385347171136037814 is added to invalidSet of 10.251.67.113:50010
081110 220648 32 INFO dfs.FSNamesystem: BLOCK* NameSystem.delete: blk_8384329882986724706 is added to invalidSet of 10.251.123.195:50010
081110 220650 32 INFO dfs.FSNamesystem: BLOCK* NameSystem.delete: blk_6392434729242722288 is added to invalidSet of 10.251.30.134:50010
081110 220651 32 INFO dfs.FSNamesystem: BLOCK* NameSystem.delete: blk_1714886759174770356 is added to invalidSet of 10.251.31.5:50010
081110 220651 32 INFO dfs.FSNamesystem: BLOCK* NameSystem.delete: blk_7400944190976416273 is added to invalidSet of 10.251.127.243:50010
081110 220651 32 INFO dfs.FSNamesystem: BLOCK* NameSystem.delete: blk_8442157310069672329 is added to invalidSet of 10.251.39.64:50010
081110 220653 32 INFO dfs.FSNamesystem: BLOCK* NameSystem.delete: blk_-5624558200776510955 is added to invalidSet of 10.251.107.242:50010
081110 220655 32 INFO dfs.FSNamesystem: BLOCK* NameSystem.delete: blk_1481009974400305784 is added to invalidSet of 10.251.39.242:50010
081110 220655 32 INFO dfs.FSNamesystem: BLOCK* NameSystem.delete: blk_355286618997526877 is added to invalidSet of 10.250.7.32:50010
081110 220655 32 INFO dfs.FSNamesystem: BLOCK* NameSystem.delete: blk_-7369651436133452001 is added to invalidSet of 10.251.127.191:50010
081110 220656 32 INFO dfs.FSNamesystem: BLOCK* NameSystem.delete: blk_-8353423262983821010 is added to invalidSet of 10.251.39.209:50010
081110 220658 32 INFO dfs.FSNamesystem: BLOCK* NameSystem.delete: blk_7017399031777870797 is added to invalidSet of 10.250.5.161:50010
081110 220708 19 INFO dfs.FSDataset: Deleting block blk_-6891122177443047531 file /mnt/hadoop/dfs/data/current/subdir36/blk_-6891122177443047531
081110 220711 30 INFO dfs.FSNamesystem: BLOCK* NameSystem.allocateBlock: /user/root/randtxt3/_temporary/_task_200811101024_0007_m_000190_0/part-00190. blk_641646158310569454
081110 220749 19 INFO dfs.FSDataset: Deleting block blk_-9171930401624803515 file /mnt/hadoop/dfs/data/current/subdir56/blk_-9171930401624803515
081110 220801 32 INFO dfs.FSNamesystem: BLOCK* NameSystem.addStoredBlock: blockMap updated: 10.251.42.84:50010 is added to blk_5938666289587069744 size 67108864
081110 220804 19 INFO dfs.FSDataset: Deleting block blk_-8294986551316947211 file /mnt/hadoop/dfs/data/current/subdir34/blk_-8294986551316947211
081110 220811 19 INFO dfs.FSDataset: Deleting block blk_-5718504625725408070 file /mnt/hadoop/dfs/data/current/blk_-5718504625725408070
081110 220830 29 INFO dfs.FSNamesystem: BLOCK* NameSystem.allocateBlock: /user/root/randtxt3/_temporary/_task_200811101024_0007_m_000374_0/part-00374. blk_-1941312615450572331