081111 094008 26005 INFO dfs.DataNode$DataXceiver: Receiving block blk_-7764040409370932316 src: /10.251.125.237:58496 dest: /10.251.125.237:50010
081111 094052 25242 INFO dfs.DataNode$DataXceiver: Receiving block blk_931297048899943584 src: /10.251.67.113:54324 dest: /10.251.67.113:50010
081111 094221 25770 INFO dfs.DataNode$PacketResponder: PacketResponder 2 for block blk_2833019093942278701 terminating
081111 094319 25340 INFO dfs.DataNode$PacketResponder: Received block blk_-5785220384376578831 of size 67108864 from /10.251.203.80
081111 094331 26028 INFO dfs.DataNode$PacketResponder: Received block blk_3386670145292909259 of size 67108864 from /10.251.110.68
081111 094415 25901 INFO dfs.DataNode$DataXceiver: Receiving block blk_1859772752119590543 src: /10.251.42.246:57741 dest: /10.251.42.246:50010
081111 094439 32 INFO dfs.FSNamesystem: BLOCK* NameSystem.allocateBlock: /user/root/rand8/_temporary/_task_200811101024_0015_m_001425_0/part-01425. blk_2630223487595425525
081111 094633 25926 INFO dfs.DataNode$PacketResponder: Received block blk_-5385105076403314787 of size 67108864 from /10.251.42.9
081111 094713 29 INFO dfs.FSNamesystem: BLOCK* NameSystem.allocateBlock: /user/root/rand8/_temporary/_task_200811101024_0015_m_001757_0/part-01757. blk_-5343533992609553091
081111 094825 35 INFO dfs.FSNamesystem: BLOCK* NameSystem.allocateBlock: /user/root/rand8/_temporary/_task_200811101024_0015_m_001473_0/part-01473. blk_-4390972361898978900
081111 094832 26039 INFO dfs.DataNode$PacketResponder: Received block blk_1190791818440776717 of size 67108864 from /10.251.43.147
081111 094918 25951 INFO dfs.DataNode$PacketResponder: Received block blk_-7202857144668308473 of size 67108864 from /10.251.43.21
081111 094921 25993 INFO dfs.DataNode$DataXceiver: Receiving block blk_5565611615515783341 src: /10.251.126.5:35656 dest: /10.251.126.5:50010
081111 094930 26178 INFO dfs.DataNode$PacketResponder: Received block blk_-3283153974358895314 of size 67108864 from /10.251.111.228
081111 094936 25537 INFO dfs.DataNode$PacketResponder: PacketResponder 1 for block blk_-1484647023667047838 terminating
081111 094939 29 INFO dfs.FSNamesystem: BLOCK* NameSystem.addStoredBlock: blockMap updated: 10.250.6.223:50010 is added to blk_7474737521119026445 size 67108864
081111 095020 25962 INFO dfs.DataNode$DataXceiver: Receiving block blk_-8571819028995448536 src: /10.251.197.226:34801 dest: /10.251.197.226:50010
081111 095035 28 INFO dfs.FSNamesystem: BLOCK* NameSystem.addStoredBlock: blockMap updated: 10.251.214.67:50010 is added to blk_-8428590803682810851 size 67108864
081111 095039 35 INFO dfs.FSNamesystem: BLOCK* NameSystem.allocateBlock: /user/root/rand8/_temporary/_task_200811101024_0015_m_001860_0/part-01860. blk_8716294289715825928
081111 095238 28 INFO dfs.FSNamesystem: BLOCK* NameSystem.addStoredBlock: blockMap updated: 10.251.123.132:50010 is added to blk_8527475857502481768 size 67108864
081111 095309 26010 INFO dfs.DataNode$PacketResponder: PacketResponder 0 for block blk_406835586147450451 terminating
081111 095434 26090 INFO dfs.DataNode$PacketResponder: Received block blk_7294821275446427348 of size 67108864 from /10.251.43.210
081111 095535 28 INFO dfs.FSNamesystem: BLOCK* NameSystem.addStoredBlock: blockMap updated: 10.251.127.243:50010 is added to blk_1793140687921032046 size 67108864
081111 095618 33 INFO dfs.FSNamesystem: BLOCK* NameSystem.addStoredBlock: blockMap updated: 10.251.126.5:50010 is added to blk_4361294871479973840 size 67108864
081111 095632 31 INFO dfs.FSNamesystem: BLOCK* NameSystem.addStoredBlock: blockMap updated: 10.250.6.4:50010 is added to blk_-6945615463687647586 size 67108864
081111 095636 26319 INFO dfs.DataNode$PacketResponder: PacketResponder 1 for block blk_1216611589160220108 terminating
081111 095653 25890 INFO dfs.DataNode$DataXceiver: Receiving block blk_-3265479347842446682 src: /10.250.14.224:47278 dest: /10.250.14.224:50010
081111 095702 30 INFO dfs.FSNamesystem: BLOCK* NameSystem.addStoredBlock: blockMap updated: 10.250.10.6:50010 is added to blk_8527562124953828227 size 67108864
081111 095726 32 INFO dfs.FSNamesystem: BLOCK* NameSystem.addStoredBlock: blockMap updated: 10.251.30.134:50010 is added to blk_2749066163012162435 size 67108864
081111 095733 32 INFO dfs.FSNamesystem: BLOCK* NameSystem.addStoredBlock: blockMap updated: 10.251.111.228:50010 is added to blk_-1305222006484630743 size 67108864
081111 095813 26362 INFO dfs.DataNode$PacketResponder: Received block blk_-3702595599317472079 of size 67108864 from /10.251.25.237
081111 095840 26225 INFO dfs.DataNode$PacketResponder: Received block blk_6446927133528675675 of size 67108864 from /10.251.39.209
081111 095844 30 INFO dfs.FSNamesystem: BLOCK* NameSystem.addStoredBlock: blockMap updated: 10.251.215.192:50010 is added to blk_2015610615789582788 size 67108864
081111 095957 26 INFO dfs.FSNamesystem: BLOCK* NameSystem.addStoredBlock: blockMap updated: 10.251.75.49:50010 is added to blk_-2959268996938658555 size 15715490
081111 100210 19 INFO dfs.FSDataset: Deleting block blk_-1082541280306680938 file /mnt/hadoop/dfs/data/current/subdir38/blk_-1082541280306680938
081111 100223 26181 INFO dfs.DataNode$PacketResponder: PacketResponder 1 for block blk_-191333338640084691 terminating
081111 100226 26261 INFO dfs.DataNode$DataXceiver: Receiving block blk_3972778210951456006 src: /10.251.121.224:56526 dest: /10.251.121.224:50010
081111 100245 26152 INFO dfs.DataNode$PacketResponder: PacketResponder 0 for block blk_1408672604432845193 terminating
081111 100323 14118 INFO dfs.DataNode$PacketResponder: Received block blk_7679838117000095334 of size 67108864 from /10.251.30.85
081111 100350 32 INFO dfs.FSNamesystem: BLOCK* NameSystem.addStoredBlock: blockMap updated: 10.250.13.240:50010 is added to blk_2593937801738981947 size 67108864
081111 100414 35 INFO dfs.FSNamesystem: BLOCK* NameSystem.addStoredBlock: blockMap updated: 10.251.71.193:50010 is added to blk_5489815612272797790 size 67108864
081111 100417 30 INFO dfs.FSNamesystem: BLOCK* NameSystem.addStoredBlock: blockMap updated: 10.251.30.101:50010 is added to blk_6451403582950672007 size 67108864
081111 100646 26268 INFO dfs.DataNode$DataXceiver: Receiving block blk_-7048088870427586736 src: /10.250.10.100:56512 dest: /10.250.10.100:50010
081111 100729 26320 INFO dfs.DataNode$PacketResponder: Received block blk_7589872946955471867 of size 67108864 from /10.251.195.70
081111 100752 26527 INFO dfs.DataNode$DataXceiver: Receiving block blk_-178934379749864379 src: /10.251.71.97:55517 dest: /10.251.71.97:50010
081111 100820 26329 INFO dfs.DataNode$PacketResponder: PacketResponder 0 for block blk_2026200052147887341 terminating
081111 100824 26391 INFO dfs.DataNode$DataXceiver: Receiving block blk_8303284829424905326 src: /10.251.70.37:47359 dest: /10.251.70.37:50010
081111 100903 33 INFO dfs.FSNamesystem: BLOCK* NameSystem.addStoredBlock: blockMap updated: 10.251.111.130:50010 is added to blk_5646792755154529338 size 67108864
081111 101115 26281 INFO dfs.DataNode$PacketResponder: PacketResponder 0 for block blk_712730845180531820 terminating
081111 101117 26526 INFO dfs.DataNode$PacketResponder: PacketResponder 2 for block blk_8418106412701718933 terminating
081111 101120 31 INFO dfs.FSNamesystem: BLOCK* NameSystem.addStoredBlock: blockMap updated: 10.251.67.225:50010 is added to blk_-6325232815283133921 size 67108864
081111 101131 26402 INFO dfs.DataNode$PacketResponder: PacketResponder 1 for block blk_-800664075087524591 terminating
081111 101153 26436 INFO dfs.DataNode$PacketResponder: Received block blk_6516880861186877710 of size 67108864 from /10.251.42.84
081111 101206 26380 INFO dfs.DataNode$PacketResponder: PacketResponder 1 for block blk_-3228470001178394592 terminating
081111 101225 34 INFO dfs.FSNamesystem: BLOCK* NameSystem.allocateBlock: /user/root/randtxt9/_temporary/_task_200811101024_0016_m_000347_0/part-00347. blk_-8426741581316629266
081111 101230 34 INFO dfs.FSNamesystem: BLOCK* NameSystem.addStoredBlock: blockMap updated: 10.251.29.239:50010 is added to blk_-762982068597249045 size 67108864
081111 101238 26399 INFO dfs.DataNode$DataXceiver: Receiving block blk_-5224756755359850354 src: /10.251.43.192:38028 dest: /10.251.43.192:50010
081111 101243 26312 INFO dfs.DataNode$PacketResponder: Received block blk_-1440254020029439248 of size 67108864 from /10.251.30.85
081111 101316 29 INFO dfs.FSNamesystem: BLOCK* NameSystem.addStoredBlock: blockMap updated: 10.251.90.64:50010 is added to blk_1441315972355360459 size 67108864
081111 101356 26434 INFO dfs.DataNode$PacketResponder: PacketResponder 0 for block blk_-9001895211102825241 terminating
081111 101415 26449 INFO dfs.DataNode$PacketResponder: PacketResponder 1 for block blk_-2025617675484194470 terminating
081111 101444 26469 INFO dfs.DataNode$PacketResponder: Received block blk_-1592043549272047369 of size 67108864 from /10.251.105.189
081111 101455 26895 INFO dfs.DataNode$DataXceiver: Receiving block blk_2583125615128303019 src: /10.251.71.97:54431 dest: /10.251.71.97:50010
081111 101621 24902 INFO dfs.DataNode$DataXceiver: Receiving block blk_4198733391373026104 src: /10.251.106.10:46843 dest: /10.251.106.10:50010
081111 101735 26595 INFO dfs.DataNode$PacketResponder: Received block blk_-5815145248455404269 of size 67108864 from /10.251.121.224
081111 101804 26494 INFO dfs.DataNode$DataXceiver: Receiving block blk_-295306975763175640 src: /10.250.9.207:53270 dest: /10.250.9.207:50010
081111 101954 26414 INFO dfs.DataNode$PacketResponder: PacketResponder 0 for block blk_5225719677049010638 terminating
081111 102017 26347 INFO dfs.DataNode$DataXceiver: Receiving block blk_4343207286455274569 src: /10.250.9.207:59759 dest: /10.250.9.207:50010