081111 033444 18940 INFO dfs.DataNode$DataXceiver: Receiving block blk_-1690784932539647416 src: /10.251.31.180:50205 dest: /10.251.31.180:50010
081111 033505 18847 INFO dfs.DataNode$PacketResponder: PacketResponder 1 for block blk_6745520736924802462 terminating
081111 033819 33 INFO dfs.FSNamesystem: BLOCK* NameSystem.delete: blk_-1525964299678787959 is added to invalidSet of 10.251.37.240:50010
081111 033823 31 INFO dfs.FSNamesystem: BLOCK* NameSystem.delete: blk_7045475543362904558 is added to invalidSet of 10.251.106.214:50010
081111 033824 28 INFO dfs.FSNamesystem: BLOCK* NameSystem.delete: blk_-6802124772693111025 is added to invalidSet of 10.251.66.63:50010
081111 033829 18 INFO dfs.FSDataset: Deleting block blk_-5205950257901523262 file /mnt/hadoop/dfs/data/current/subdir40/blk_-5205950257901523262
081111 033925 18906 INFO dfs.DataNode$PacketResponder: PacketResponder 2 for block blk_-1649239999940418046 terminating
081111 033927 19172 INFO dfs.DataNode$PacketResponder: Received block blk_6880728743505526406 of size 67108864 from /10.251.197.226
081111 033935 18945 INFO dfs.DataNode$DataXceiver: Receiving block blk_5256716488526744434 src: /10.251.73.220:42064 dest: /10.251.73.220:50010
081111 033953 26 INFO dfs.FSNamesystem: BLOCK* NameSystem.addStoredBlock: blockMap updated: 10.251.26.177:50010 is added to blk_6928449948805597176 size 67108864
081111 034105 18847 INFO dfs.DataNode$PacketResponder: PacketResponder 2 for block blk_2529569087635823495 terminating
081111 034252 33 INFO dfs.FSNamesystem: BLOCK* NameSystem.allocateBlock: /user/root/randtxt4/_temporary/_task_200811101024_0010_m_000222_0/part-00222. blk_3764836840384130740
081111 034323 19025 INFO dfs.DataNode$DataXceiver: Receiving block blk_3020717811556957482 src: /10.251.90.81:48077 dest: /10.251.90.81:50010
081111 034351 18690 INFO dfs.DataNode$PacketResponder: Received block blk_-577659324269246113 of size 67108864 from /10.251.203.179
081111 034456 18909 INFO dfs.DataNode$PacketResponder: PacketResponder 0 for block blk_6137960563260046065 terminating
081111 034600 33 INFO dfs.FSNamesystem: BLOCK* NameSystem.addStoredBlock: blockMap updated: 10.251.203.246:50010 is added to blk_-6909400912794057067 size 67108864
081111 034712 26 INFO dfs.FSNamesystem: BLOCK* NameSystem.addStoredBlock: blockMap updated: 10.251.43.192:50010 is added to blk_8249475180346179102 size 67108864
081111 034726 19054 INFO dfs.DataNode$PacketResponder: Received block blk_-5045144756510626150 of size 67108864 from /10.251.39.160
081111 034742 19142 INFO dfs.DataNode$PacketResponder: Received block blk_752365829198406123 of size 67108864 from /10.250.6.214
081111 034937 19166 INFO dfs.DataNode$PacketResponder: PacketResponder 2 for block blk_5663417083925711869 terminating
081111 034945 19257 INFO dfs.DataNode$PacketResponder: PacketResponder 2 for block blk_-2014243777892518956 terminating
081111 035010 19149 INFO dfs.DataNode$DataXceiver: Receiving block blk_-8123824094195108685 src: /10.251.194.213:54308 dest: /10.251.194.213:50010
081111 035113 19229 INFO dfs.DataNode$DataXceiver: Receiving block blk_2080318574920472813 src: /10.251.39.64:40530 dest: /10.251.39.64:50010
081111 035115 18830 INFO dfs.DataNode$PacketResponder: Received block blk_-290874442865281380 of size 28497700 from /10.251.203.179
081111 035152 30 INFO dfs.FSNamesystem: BLOCK* NameSystem.addStoredBlock: blockMap updated: 10.251.73.220:50010 is added to blk_5953577136151423920 size 67108864
081111 035247 19144 INFO dfs.DataNode$PacketResponder: PacketResponder 1 for block blk_-2780312306380730204 terminating
081111 035417 19387 INFO dfs.DataNode$PacketResponder: PacketResponder 2 for block blk_-633826175832239328 terminating
081111 035532 32 INFO dfs.FSNamesystem: BLOCK* NameSystem.addStoredBlock: blockMap updated: 10.250.15.101:50010 is added to blk_-6540455811923725840 size 67108864
081111 035620 31 INFO dfs.FSNamesystem: BLOCK* NameSystem.addStoredBlock: blockMap updated: 10.251.123.1:50010 is added to blk_6308888821787547357 size 67108864
081111 035834 19205 INFO dfs.DataNode$PacketResponder: PacketResponder 1 for block blk_4638603954320058978 terminating
081111 035913 26 INFO dfs.FSNamesystem: BLOCK* NameSystem.addStoredBlock: blockMap updated: 10.251.91.229:50010 is added to blk_-4651707530079874243 size 67108864
081111 035915 19117 INFO dfs.DataNode$PacketResponder: PacketResponder 2 for block blk_5115892145206906855 terminating
081111 035948 19511 INFO dfs.DataNode$PacketResponder: PacketResponder 1 for block blk_-2421414377433740760 terminating
081111 035957 19217 INFO dfs.DataNode$PacketResponder: Received block blk_-420564586555502239 of size 67108864 from /10.251.90.64
081111 040107 30 INFO dfs.FSNamesystem: BLOCK* NameSystem.allocateBlock: /user/root/randtxt4/_temporary/_task_200811101024_0010_m_000881_0/part-00881. blk_-3091906986951252347
081111 040246 19412 INFO dfs.DataNode$PacketResponder: PacketResponder 2 for block blk_-4068751061953213467 terminating
081111 040251 19350 INFO dfs.DataNode$PacketResponder: PacketResponder 0 for block blk_-3025440686907267472 terminating
081111 040402 31 INFO dfs.FSNamesystem: BLOCK* NameSystem.addStoredBlock: blockMap updated: 10.251.215.70:50010 is added to blk_-420818767915591010 size 67108864
081111 040405 19541 INFO dfs.DataNode$PacketResponder: PacketResponder 2 for block blk_8422946850755720617 terminating
081111 040425 19408 INFO dfs.DataNode$DataXceiver: Receiving block blk_-5646228903161999640 src: /10.251.71.97:60870 dest: /10.251.71.97:50010
081111 040521 19253 INFO dfs.DataNode$PacketResponder: PacketResponder 0 for block blk_-7024895786822269814 terminating
081111 040537 19518 INFO dfs.DataNode$PacketResponder: PacketResponder 0 for block blk_-4430291708660291878 terminating
081111 040543 19431 INFO dfs.DataNode$DataXceiver: Receiving block blk_-6250368566161066085 src: /10.251.31.180:42992 dest: /10.251.31.180:50010
081111 040544 19362 INFO dfs.DataNode$DataXceiver: Receiving block blk_-6213380972217661202 src: /10.251.203.149:40478 dest: /10.251.203.149:50010
081111 040604 19555 INFO dfs.DataNode$PacketResponder: Received block blk_3813891701916249413 of size 67108864 from /10.251.121.224
081111 040626 19526 INFO dfs.DataNode$PacketResponder: PacketResponder 2 for block blk_903961454948542202 terminating
081111 040653 26 INFO dfs.FSNamesystem: BLOCK* NameSystem.addStoredBlock: blockMap updated: 10.251.42.16:50010 is added to blk_3954386352306480748 size 67108864
081111 040658 27 INFO dfs.FSNamesystem: BLOCK* NameSystem.addStoredBlock: blockMap updated: 10.251.105.189:50010 is added to blk_4812792845864526586 size 67108864
081111 040728 31 INFO dfs.FSNamesystem: BLOCK* NameSystem.addStoredBlock: blockMap updated: 10.251.70.211:50010 is added to blk_5570475465835003801 size 67108864
081111 040751 19585 INFO dfs.DataNode$PacketResponder: Received block blk_-9190864897806028230 of size 67108864 from /10.251.214.130
081111 040754 30 INFO dfs.FSNamesystem: BLOCK* NameSystem.addStoredBlock: blockMap updated: 10.251.31.242:50010 is added to blk_-4342304152206614489 size 67108864
081111 040857 19185 INFO dfs.DataNode$PacketResponder: PacketResponder 0 for block blk_-190773840747023361 terminating
081111 041004 30 INFO dfs.FSNamesystem: BLOCK* NameSystem.addStoredBlock: blockMap updated: 10.251.71.240:50010 is added to blk_-5580048401594934039 size 67108864
081111 041039 33 INFO dfs.FSNamesystem: BLOCK* NameSystem.addStoredBlock: blockMap updated: 10.251.39.242:50010 is added to blk_6640583412927022083 size 67108864
081111 041111 27 INFO dfs.FSNamesystem: BLOCK* NameSystem.addStoredBlock: blockMap updated: 10.251.65.203:50010 is added to blk_-1332315107905285608 size 67108864
081111 041218 19235 INFO dfs.DataNode$PacketResponder: Received block blk_3550669278239526374 of size 67108864 from /10.251.123.1
081111 041219 19820 INFO dfs.DataNode$PacketResponder: PacketResponder 0 for block blk_4873550540813847659 terminating
081111 041252 19248 INFO dfs.DataNode$DataXceiver: Receiving block blk_-1133573997287815203 src: /10.251.123.195:59430 dest: /10.251.123.195:50010
081111 041349 26 INFO dfs.FSNamesystem: BLOCK* NameSystem.addStoredBlock: blockMap updated: 10.251.74.134:50010 is added to blk_2740792916077430444 size 28482383
081111 041425 19630 INFO dfs.DataNode$PacketResponder: PacketResponder 0 for block blk_2851869865185325732 terminating
081111 041443 19498 INFO dfs.DataNode$PacketResponder: PacketResponder 0 for block blk_-1842096107468319932 terminating
081111 041509 20066 INFO dfs.DataNode$PacketResponder: Received block blk_-8965508153794244104 of size 28494398 from /10.251.70.112
081111 041532 19592 INFO dfs.DataNode$DataXceiver: Receiving block blk_1074754942323612586 src: /10.251.202.181:45279 dest: /10.251.202.181:50010
081111 041534 19842 INFO dfs.DataNode$DataXceiver: Receiving block blk_-7727864185516010230 src: /10.251.43.192:36039 dest: /10.251.43.192:50010
081111 041701 19403 INFO dfs.DataNode$PacketResponder: PacketResponder 2 for block blk_-4779205255695723216 terminating
081111 041734 19799 INFO dfs.DataNode$PacketResponder: PacketResponder 0 for block blk_2261089810991980611 terminating
081111 041811 19543 INFO dfs.DataNode$DataXceiver: Receiving block blk_5335498635665743905 src: /10.251.73.220:50095 dest: /10.251.73.220:50010
081111 041926 19700 INFO dfs.DataNode$DataXceiver: Receiving block blk_-5144503768267321004 src: /10.251.107.19:36862 dest: /10.251.107.19:50010
081111 042009 19800 INFO dfs.DataNode$PacketResponder: PacketResponder 1 for block blk_1927336911952959118 terminating
081111 042024 28 INFO dfs.FSNamesystem: BLOCK* NameSystem.addStoredBlock: blockMap updated: 10.251.203.166:50010 is added to blk_-2332150303475653460 size 67108864
081111 042042 19757 INFO dfs.DataNode$PacketResponder: PacketResponder 2 for block blk_2111886617384066018 terminating
081111 042100 19804 INFO dfs.DataNode$DataXceiver: Receiving block blk_-2506231977021079951 src: /10.251.31.160:57634 dest: /10.251.31.160:50010
081111 042129 32 INFO dfs.FSNamesystem: BLOCK* NameSystem.addStoredBlock: blockMap updated: 10.251.199.86:50010 is added to blk_4330492872922862223 size 67108864
081111 042353 19811 INFO dfs.DataNode$PacketResponder: PacketResponder 2 for block blk_6918427074195439966 terminating
081111 042416 19265 INFO dfs.DataNode$DataXceiver: Receiving block blk_4284688617983009262 src: /10.251.91.32:57548 dest: /10.251.91.32:50010
081111 042427 30 INFO dfs.FSNamesystem: BLOCK* NameSystem.addStoredBlock: blockMap updated: 10.251.31.5:50010 is added to blk_5813361416484537967 size 67108864
081111 042456 19952 INFO dfs.DataNode$DataXceiver: Receiving block blk_-2313277713021896570 src: /10.251.123.195:58823 dest: /10.251.123.195:50010
081111 042457 19726 INFO dfs.DataNode$PacketResponder: PacketResponder 0 for block blk_-7778922135767840250 terminating
081111 042625 19958 INFO dfs.DataNode$DataXceiver: Receiving block blk_-7350482598011027441 src: /10.250.7.96:41476 dest: /10.250.7.96:50010
081111 042735 19901 INFO dfs.DataNode$PacketResponder: Received block blk_-3607860197409267245 of size 28503188 from /10.251.31.180
081111 042824 18264 INFO dfs.DataNode$PacketResponder: PacketResponder 1 for block blk_4178945095089206682 terminating
081111 043015 19875 INFO dfs.DataNode$PacketResponder: PacketResponder 2 for block blk_-3363550789841756902 terminating
081111 043042 20058 INFO dfs.DataNode$DataXceiver: Receiving block blk_345577139488306634 src: /10.251.37.240:38873 dest: /10.251.37.240:50010
081111 043106 31 INFO dfs.FSNamesystem: BLOCK* NameSystem.addStoredBlock: blockMap updated: 10.251.71.193:50010 is added to blk_4577632468651859430 size 67108864