081111 045751 26 INFO dfs.FSNamesystem: BLOCK* NameSystem.addStoredBlock: blockMap updated: 10.251.126.22:50010 is added to blk_-8298519990603402919 size 67108864
081111 045804 20338 INFO dfs.DataNode$PacketResponder: Received block blk_-337972286882621518 of size 67108864 from /10.250.10.144
081111 045834 19263 INFO dfs.DataNode$PacketResponder: PacketResponder 0 for block blk_-4411589101766563890 terminating
081111 045903 20579 INFO dfs.DataNode$DataXceiver: Receiving block blk_-8838632285969241889 src: /10.251.43.21:35844 dest: /10.251.43.21:50010
081111 045904 20552 INFO dfs.DataNode$PacketResponder: PacketResponder 2 for block blk_-8225435781013159573 terminating
081111 045911 26 INFO dfs.FSNamesystem: BLOCK* NameSystem.addStoredBlock: blockMap updated: 10.251.27.63:50010 is added to blk_-7985144765168396303 size 67108864
081111 050045 31 INFO dfs.FSNamesystem: BLOCK* NameSystem.allocateBlock: /user/root/rand5/_temporary/_task_200811101024_0011_m_000541_0/part-00541. blk_-6841570414687342011
081111 050105 20507 INFO dfs.DataNode$PacketResponder: Received block blk_3924177422736829493 of size 67108864 from /10.251.66.102
081111 050307 20305 INFO dfs.DataNode$DataXceiver: Receiving block blk_9074726164158535746 src: /10.251.214.32:34409 dest: /10.251.214.32:50010
081111 050313 27 INFO dfs.FSNamesystem: BLOCK* NameSystem.addStoredBlock: blockMap updated: 10.251.107.242:50010 is added to blk_-5773244829531118765 size 67108864
081111 050334 20441 INFO dfs.DataNode$DataXceiver: Received block blk_-4411589101766563890 src: /10.250.14.38:37362 dest: /10.250.14.38:50010 of size 67108864
081111 050346 27 INFO dfs.FSNamesystem: BLOCK* NameSystem.addStoredBlock: blockMap updated: 10.251.90.64:50010 is added to blk_-8923923031063738809 size 67108864
081111 050414 20630 INFO dfs.DataNode$DataXceiver: Receiving block blk_-8703611999267892995 src: /10.250.15.101:32889 dest: /10.250.15.101:50010
081111 050426 26 INFO dfs.FSNamesystem: BLOCK* NameSystem.addStoredBlock: blockMap updated: 10.250.15.101:50010 is added to blk_-5352085087037370841 size 67108864
081111 050534 20462 INFO dfs.DataNode$PacketResponder: Received block blk_1411218759880637753 of size 67108864 from /10.251.123.20
081111 050710 20499 INFO dfs.DataNode$PacketResponder: PacketResponder 2 for block blk_-2268450354164990110 terminating
081111 051005 26 INFO dfs.FSNamesystem: BLOCK* NameSystem.addStoredBlock: blockMap updated: 10.251.122.79:50010 is added to blk_-3622135859810774312 size 67108864
081111 051007 21019 INFO dfs.DataNode$DataXceiver: Receiving block blk_-2667669005094349452 src: /10.251.203.149:41751 dest: /10.251.203.149:50010
081111 051128 20647 INFO dfs.DataNode$PacketResponder: Received block blk_-2935178173527646581 of size 67108864 from /10.251.65.237
081111 051129 35 INFO dfs.FSNamesystem: BLOCK* NameSystem.addStoredBlock: blockMap updated: 10.251.107.227:50010 is added to blk_5781791720343455145 size 67108864
081111 051130 20759 INFO dfs.DataNode$PacketResponder: Received block blk_49420377461855719 of size 67108864 from /10.251.70.112
081111 051331 20788 INFO dfs.DataNode$PacketResponder: PacketResponder 0 for block blk_-805262942087665153 terminating
081111 051411 30 INFO dfs.FSNamesystem: BLOCK* NameSystem.addStoredBlock: blockMap updated: 10.251.214.225:50010 is added to blk_8323519561483823145 size 67108864
081111 051513 20482 INFO dfs.DataNode$DataXceiver: Receiving block blk_2208589726473895860 src: /10.251.199.245:33914 dest: /10.251.199.245:50010
081111 051517 20834 INFO dfs.DataNode$DataXceiver: Receiving block blk_-6618090096819679591 src: /10.251.214.67:58610 dest: /10.251.214.67:50010
081111 051555 27 INFO dfs.FSNamesystem: BLOCK* NameSystem.addStoredBlock: blockMap updated: 10.251.42.16:50010 is added to blk_-3253005280055520211 size 67108864
081111 051726 20622 INFO dfs.DataNode$PacketResponder: Received block blk_-6832799704680039005 of size 67108864 from /10.250.17.225
081111 051744 33 INFO dfs.FSNamesystem: BLOCK* NameSystem.addStoredBlock: blockMap updated: 10.251.65.203:50010 is added to blk_4777657900314457675 size 3546628
081111 051819 20803 INFO dfs.DataNode$PacketResponder: Received block blk_-6464892000340112134 of size 67108864 from /10.250.5.161
081111 051953 20767 INFO dfs.DataNode$PacketResponder: PacketResponder 2 for block blk_-8435779070374485499 terminating
081111 052017 20779 INFO dfs.DataNode$PacketResponder: Received block blk_8993862241777591326 of size 67108864 from /10.250.15.240
081111 052103 20872 INFO dfs.DataNode$DataXceiver: Receiving block blk_8452214765874767801 src: /10.251.38.197:60409 dest: /10.251.38.197:50010
081111 052348 31 INFO dfs.FSNamesystem: BLOCK* NameSystem.addStoredBlock: blockMap updated: 10.251.90.239:50010 is added to blk_-2281067667503210140 size 67108864
081111 052507 21174 INFO dfs.DataNode$PacketResponder: PacketResponder 2 for block blk_-4424971182856566289 terminating
081111 052633 21162 INFO dfs.DataNode$PacketResponder: PacketResponder 0 for block blk_2040222317555585426 terminating
081111 052716 20795 INFO dfs.DataNode$DataXceiver: Receiving block blk_-663653551898848389 src: /10.251.203.149:42756 dest: /10.251.203.149:50010
081111 052803 21053 INFO dfs.DataNode$DataXceiver: Receiving block blk_-5836693155656083066 src: /10.251.214.67:41233 dest: /10.251.214.67:50010
081111 052812 21102 INFO dfs.DataNode$DataXceiver: Receiving block blk_-7228803354694123939 src: /10.251.195.70:50389 dest: /10.251.195.70:50010
081111 052842 21012 INFO dfs.DataNode$PacketResponder: PacketResponder 2 for block blk_2953550760670423417 terminating
081111 052846 21358 INFO dfs.DataNode$PacketResponder: Received block blk_5348548743130215090 of size 67108864 from /10.251.39.179
081111 052853 20914 INFO dfs.DataNode$PacketResponder: Received block blk_7413830214932763926 of size 67108864 from /10.251.125.174
081111 053001 20539 INFO dfs.DataNode$PacketResponder: Received block blk_6329639726609402522 of size 67108864 from /10.251.107.19
081111 053010 30 INFO dfs.FSNamesystem: BLOCK* NameSystem.allocateBlock: /user/root/rand5/_temporary/_task_200811101024_0011_m_001408_0/part-01408. blk_6601059760261449131
081111 053158 21003 INFO dfs.DataNode$DataXceiver: Receiving block blk_-5439682406172672049 src: /10.251.42.207:36091 dest: /10.251.42.207:50010
081111 053245 21296 INFO dfs.DataNode$DataXceiver: Receiving block blk_-7492294065771709299 src: /10.251.203.149:41058 dest: /10.251.203.149:50010
081111 053325 30 INFO dfs.FSNamesystem: BLOCK* NameSystem.addStoredBlock: blockMap updated: 10.251.39.144:50010 is added to blk_1526403491950199810 size 3534443
081111 053347 21024 INFO dfs.DataNode$PacketResponder: Received block blk_8902425017314766082 of size 67108864 from /10.251.26.131
081111 053359 28 INFO dfs.FSNamesystem: BLOCK* NameSystem.allocateBlock: /user/root/rand5/_temporary/_task_200811101024_0011_m_001730_0/part-01730. blk_6400082566804273401
081111 053400 21069 INFO dfs.DataNode$DataXceiver: Receiving block blk_6400082566804273401 src: /10.251.38.214:42160 dest: /10.251.38.214:50010
081111 053431 20804 INFO dfs.DataNode$PacketResponder: Received block blk_4989329877491629543 of size 67108864 from /10.250.15.67
081111 053619 21091 INFO dfs.DataNode$DataXceiver: Receiving block blk_-6608350831463251448 src: /10.251.107.196:43317 dest: /10.251.107.196:50010
081111 053916 21341 INFO dfs.DataNode$PacketResponder: PacketResponder 1 for block blk_-5580322334454533924 terminating
081111 053932 21163 INFO dfs.DataNode$PacketResponder: PacketResponder 1 for block blk_7500282100357271699 terminating
081111 053958 21262 INFO dfs.DataNode$DataXceiver: Receiving block blk_8087142318511408355 src: /10.250.15.67:55334 dest: /10.250.15.67:50010
081111 054004 21237 INFO dfs.DataNode$PacketResponder: Received block blk_-997605125898553536 of size 67108864 from /10.251.30.179
081111 054018 33 INFO dfs.FSNamesystem: BLOCK* NameSystem.addStoredBlock: blockMap updated: 10.251.106.37:50010 is added to blk_-4510259260131940043 size 3552141
081111 054135 21577 INFO dfs.DataNode$PacketResponder: Received block blk_2270593866672608129 of size 67108864 from /10.250.11.53
081111 054310 21173 INFO dfs.DataNode$PacketResponder: Received block blk_6685663454079607598 of size 10157271 from /10.251.66.3
081111 054323 35 INFO dfs.FSNamesystem: BLOCK* NameSystem.addStoredBlock: blockMap updated: 10.251.30.179:50010 is added to blk_-4347054230277727863 size 67108864
081111 054342 20995 INFO dfs.DataNode$PacketResponder: PacketResponder 0 for block blk_-1067234447809438340 terminating
081111 054443 21162 INFO dfs.DataNode$PacketResponder: PacketResponder 0 for block blk_-1096621677333075077 terminating
081111 054449 26 INFO dfs.FSNamesystem: BLOCK* NameSystem.addStoredBlock: blockMap updated: 10.251.125.193:50010 is added to blk_-8657800226489501791 size 3550839
081111 054504 21552 INFO dfs.DataNode$PacketResponder: PacketResponder 1 for block blk_2151150262081352617 terminating
081111 054731 29 INFO dfs.FSNamesystem: BLOCK* NameSystem.delete: blk_3280859030919654043 is added to invalidSet of 10.251.214.130:50010
081111 054811 21215 INFO dfs.DataNode$PacketResponder: PacketResponder 2 for block blk_-6811828069408410657 terminating
081111 054914 21234 INFO dfs.DataNode$PacketResponder: Received block blk_4967370797322420259 of size 67108864 from /10.251.39.192
081111 055147 28 INFO dfs.FSNamesystem: BLOCK* NameSystem.addStoredBlock: blockMap updated: 10.251.127.243:50010 is added to blk_-719178972315562824 size 67108864
081111 055219 33 INFO dfs.FSNamesystem: BLOCK* NameSystem.addStoredBlock: blockMap updated: 10.251.67.4:50010 is added to blk_9093176996492793041 size 67108864
081111 055444 21503 INFO dfs.DataNode$PacketResponder: PacketResponder 1 for block blk_-7200400342436668240 terminating
081111 055501 21608 INFO dfs.DataNode$PacketResponder: Received block blk_7213990003235926706 of size 67108864 from /10.250.11.100
081111 055640 28 INFO dfs.FSNamesystem: BLOCK* NameSystem.addStoredBlock: blockMap updated: 10.250.7.32:50010 is added to blk_-2125743956855238111 size 67108864
081111 055936 28 INFO dfs.FSNamesystem: BLOCK* NameSystem.addStoredBlock: blockMap updated: 10.250.7.244:50010 is added to blk_-4875138366845786590 size 67108864
081111 060015 21733 INFO dfs.DataNode$PacketResponder: PacketResponder 0 for block blk_2508619583759354778 terminating
081111 060043 32 INFO dfs.FSNamesystem: BLOCK* NameSystem.addStoredBlock: blockMap updated: 10.250.7.244:50010 is added to blk_6095704128062577668 size 28484260
081111 060104 21535 INFO dfs.DataNode$PacketResponder: PacketResponder 2 for block blk_6123232805286187512 terminating
081111 060154 21461 INFO dfs.DataNode$DataXceiver: Receiving block blk_6413965758113058023 src: /10.251.199.150:45184 dest: /10.251.199.150:50010
081111 060244 28 INFO dfs.FSNamesystem: BLOCK* NameSystem.addStoredBlock: blockMap updated: 10.251.197.226:50010 is added to blk_7275457888263057111 size 67108864
081111 060510 21849 INFO dfs.DataNode$PacketResponder: PacketResponder 1 for block blk_6818232325322327288 terminating
081111 061043 21809 INFO dfs.DataNode$PacketResponder: Received block blk_-5954527587435406374 of size 67108864 from /10.251.106.10
081111 061200 21837 INFO dfs.DataNode$PacketResponder: Received block blk_-4358842839092719327 of size 67108864 from /10.250.15.67
081111 061202 22063 INFO dfs.DataNode$PacketResponder: Received block blk_1489031087420498797 of size 67108864 from /10.251.71.193
081111 061534 21779 INFO dfs.DataNode$PacketResponder: PacketResponder 2 for block blk_-615578808743808725 terminating
081111 061549 21862 INFO dfs.DataNode$PacketResponder: Received block blk_4588471931728384541 of size 67108864 from /10.251.90.81
081111 061602 31 INFO dfs.FSNamesystem: BLOCK* NameSystem.allocateBlock: /user/root/randtxt5/_temporary/_task_200811101024_0012_m_001192_0/part-01192. blk_7720864196601815614